	.file	"fast9_detect.c"
	.section .text
	.align	4
.proc	make_offsets
	.type	make_offsets, @function
make_offsets:
.LFB0:
	.cfi_startproc
	l.sw    	-4(r1),r2	 # SI store
	.cfi_offset 2, -4
	l.addi  	r2,r1,0 # addsi3
	.cfi_def_cfa_register 2
	l.addi	r1,r1,-12	# allocate frame
	l.sw    	-8(r2),r3	 # SI store
	l.sw    	-12(r2),r4	 # SI store
	l.lwz   	r4,-12(r2)	 # SI load
	l.ori   	r3,r4,0	 # move reg to reg
	l.add   	r3,r3,r3 # addsi3
	l.add   	r4,r3,r4 # addsi3
	l.lwz   	r3,-8(r2)	 # SI load
	l.sw    	0(r3),r4	 # SI store
	l.lwz   	r3,-8(r2)	 # SI load
	l.addi  	r5,r3,4 # addsi3
	l.lwz   	r4,-12(r2)	 # SI load
	l.ori   	r3,r4,0	 # move reg to reg
	l.add   	r3,r3,r3 # addsi3
	l.add   	r3,r3,r4 # addsi3
	l.addi  	r3,r3,1 # addsi3
	l.sw    	0(r5),r3	 # SI store
	l.lwz   	r3,-8(r2)	 # SI load
	l.addi  	r4,r3,8 # addsi3
	l.lwz   	r3,-12(r2)	 # SI load
	l.addi  	r3,r3,1 # addsi3
	l.add   	r3,r3,r3 # addsi3
	l.sw    	0(r4),r3	 # SI store
	l.lwz   	r3,-8(r2)	 # SI load
	l.addi  	r3,r3,12 # addsi3
	l.lwz   	r4,-12(r2)	 # SI load
	l.addi  	r4,r4,3 # addsi3
	l.sw    	0(r3),r4	 # SI store
	l.lwz   	r3,-8(r2)	 # SI load
	l.addi  	r3,r3,16 # addsi3
	l.addi  	r4,r0,3	 # move immediate I
	l.sw    	0(r3),r4	 # SI store
	l.lwz   	r3,-8(r2)	 # SI load
	l.addi  	r3,r3,20 # addsi3
	l.addi  	r5,r0,3	 # move immediate I
	l.lwz   	r4,-12(r2)	 # SI load
	l.sub   	r4,r5,r4 # subsi3
	l.sw    	0(r3),r4	 # SI store
	l.lwz   	r3,-8(r2)	 # SI load
	l.addi  	r4,r3,24 # addsi3
	l.lwz   	r3,-12(r2)	 # SI load
	l.add   	r3,r3,r3 # addsi3
	l.sub   	r3,r0,r3 # negsi2
	l.addi  	r3,r3,2 # addsi3
	l.sw    	0(r4),r3	 # SI store
	l.lwz   	r3,-8(r2)	 # SI load
	l.addi  	r5,r3,28 # addsi3
	l.lwz   	r4,-12(r2)	 # SI load
	l.ori   	r3,r4,0	 # move reg to reg
	l.add   	r3,r3,r3 # addsi3
	l.add   	r3,r3,r4 # addsi3
	l.sub   	r3,r0,r3 # negsi2
	l.addi  	r3,r3,1 # addsi3
	l.sw    	0(r5),r3	 # SI store
	l.lwz   	r3,-8(r2)	 # SI load
	l.addi  	r5,r3,32 # addsi3
	l.lwz   	r4,-12(r2)	 # SI load
	l.ori   	r3,r4,0	 # move reg to reg
	l.add   	r3,r3,r3 # addsi3
	l.add   	r3,r3,r4 # addsi3
	l.sub   	r3,r0,r3 # negsi2
	l.sw    	0(r5),r3	 # SI store
	l.lwz   	r3,-8(r2)	 # SI load
	l.addi  	r5,r3,36 # addsi3
	l.lwz   	r4,-12(r2)	 # SI load
	l.ori   	r3,r4,0	 # move reg to reg
	l.add   	r3,r3,r3 # addsi3
	l.add   	r3,r3,r4 # addsi3
	l.sub   	r3,r0,r3 # negsi2
	l.addi  	r3,r3,-1 # addsi3
	l.sw    	0(r5),r3	 # SI store
	l.lwz   	r3,-8(r2)	 # SI load
	l.addi  	r4,r3,40 # addsi3
	l.lwz   	r3,-12(r2)	 # SI load
	l.add   	r3,r3,r3 # addsi3
	l.sub   	r3,r0,r3 # negsi2
	l.addi  	r3,r3,-2 # addsi3
	l.sw    	0(r4),r3	 # SI store
	l.lwz   	r3,-8(r2)	 # SI load
	l.addi  	r3,r3,44 # addsi3
	l.addi  	r5,r0,-3	 # move immediate I
	l.lwz   	r4,-12(r2)	 # SI load
	l.sub   	r4,r5,r4 # subsi3
	l.sw    	0(r3),r4	 # SI store
	l.lwz   	r3,-8(r2)	 # SI load
	l.addi  	r3,r3,48 # addsi3
	l.addi  	r4,r0,-3	 # move immediate I
	l.sw    	0(r3),r4	 # SI store
	l.lwz   	r3,-8(r2)	 # SI load
	l.addi  	r3,r3,52 # addsi3
	l.lwz   	r4,-12(r2)	 # SI load
	l.addi  	r4,r4,-3 # addsi3
	l.sw    	0(r3),r4	 # SI store
	l.lwz   	r3,-8(r2)	 # SI load
	l.addi  	r4,r3,56 # addsi3
	l.lwz   	r3,-12(r2)	 # SI load
	l.addi  	r3,r3,-1 # addsi3
	l.add   	r3,r3,r3 # addsi3
	l.sw    	0(r4),r3	 # SI store
	l.lwz   	r3,-8(r2)	 # SI load
	l.addi  	r5,r3,60 # addsi3
	l.lwz   	r4,-12(r2)	 # SI load
	l.ori   	r3,r4,0	 # move reg to reg
	l.add   	r3,r3,r3 # addsi3
	l.add   	r3,r3,r4 # addsi3
	l.addi  	r3,r3,-1 # addsi3
	l.sw    	0(r5),r3	 # SI store
	l.nop
	l.ori	r1,r2,0	# deallocate frame
	l.lwz   	r2,-4(r1)	 # SI load
	l.jr    	r9	# return_internal
	l.nop			# nop delay slot
	.cfi_endproc
.LFE0:
	.size	make_offsets, .-make_offsets
	.align	4
.proc	fast9_detect
	.global fast9_detect
	.type	fast9_detect, @function
fast9_detect:
.LFB1:
	.cfi_startproc
	l.sw    	-8(r1),r2	 # SI store
	.cfi_offset 2, -8
	l.addi  	r2,r1,0 # addsi3
	.cfi_def_cfa_register 2
	l.sw    	-4(r1),r9	 # SI store
	l.addi	r1,r1,-120	# allocate frame
	.cfi_offset 9, -4
	l.sw    	-100(r2),r3	 # SI store
	l.sw    	-104(r2),r4	 # SI store
	l.sw    	-108(r2),r5	 # SI store
	l.sw    	-112(r2),r6	 # SI store
	l.sw    	-116(r2),r7	 # SI store
	l.sw    	-120(r2),r8	 # SI store
	l.addi  	r3,r0,0	 # move immediate I
	l.sw    	-12(r2),r3	 # SI store
	l.addi  	r3,r2,-96 # addsi3
	l.lwz   	r4,-112(r2)	 # SI load
	l.jal   	make_offsets# call_internal
	l.nop			# nop delay slot
	l.addi  	r3,r0,3	 # move immediate I
	l.sw    	-20(r2),r3	 # SI store
	l.j     	.L3 # jump_internal
	l.nop			# nop delay slot
.L788:
	l.addi  	r3,r0,3	 # move immediate I
	l.sw    	-16(r2),r3	 # SI store
	l.j     	.L4 # jump_internal
	l.nop			# nop delay slot
.L787:
	l.lwz   	r4,-20(r2)	 # SI load
	l.lwz   	r3,-112(r2)	 # SI load
	l.mul   	r3,r4,r3 # mulsi3
	l.ori   	r4,r3,0	 # move reg to reg
	l.lwz   	r3,-16(r2)	 # SI load
	l.add   	r3,r4,r3 # addsi3
	l.lwz   	r4,-100(r2)	 # SI load
	l.add   	r3,r4,r3 # addsi3
	l.sw    	-24(r2),r3	 # SI store
	l.lwz   	r3,-24(r2)	 # SI load
	l.lbz   	r3,0(r3)	 # zero_extendqisi2
	l.ori   	r4,r3,0	 # move reg to reg
	l.lwz   	r3,-116(r2)	 # SI load
	l.add   	r3,r4,r3 # addsi3
	l.sw    	-28(r2),r3	 # SI store
	l.lwz   	r3,-24(r2)	 # SI load
	l.lbz   	r3,0(r3)	 # zero_extendqisi2
	l.ori   	r4,r3,0	 # move reg to reg
	l.lwz   	r3,-116(r2)	 # SI load
	l.sub   	r3,r4,r3 # subsi3
	l.sw    	-32(r2),r3	 # SI store
	l.lwz   	r3,-96(r2)	 # SI load
	l.ori   	r4,r3,0	 # move reg to reg
	l.lwz   	r3,-24(r2)	 # SI load
	l.add   	r3,r3,r4 # addsi3
	l.lbz   	r3,0(r3)	 # zero_extendqisi2
	l.ori   	r4,r3,0	 # move reg to reg
	l.lwz   	r3,-28(r2)	 # SI load
	l.sfles 	r4,r3 # cmpsi_le
	l.bf	.L5
	l.nop			# nop delay slot
	l.lwz   	r3,-92(r2)	 # SI load
	l.ori   	r4,r3,0	 # move reg to reg
	l.lwz   	r3,-24(r2)	 # SI load
	l.add   	r3,r3,r4 # addsi3
	l.lbz   	r3,0(r3)	 # zero_extendqisi2
	l.ori   	r4,r3,0	 # move reg to reg
	l.lwz   	r3,-28(r2)	 # SI load
	l.sfles 	r4,r3 # cmpsi_le
	l.bf	.L6
	l.nop			# nop delay slot
	l.lwz   	r3,-88(r2)	 # SI load
	l.ori   	r4,r3,0	 # move reg to reg
	l.lwz   	r3,-24(r2)	 # SI load
	l.add   	r3,r3,r4 # addsi3
	l.lbz   	r3,0(r3)	 # zero_extendqisi2
	l.ori   	r4,r3,0	 # move reg to reg
	l.lwz   	r3,-28(r2)	 # SI load
	l.sfles 	r4,r3 # cmpsi_le
	l.bf	.L7
	l.nop			# nop delay slot
	l.lwz   	r3,-84(r2)	 # SI load
	l.ori   	r4,r3,0	 # move reg to reg
	l.lwz   	r3,-24(r2)	 # SI load
	l.add   	r3,r3,r4 # addsi3
	l.lbz   	r3,0(r3)	 # zero_extendqisi2
	l.ori   	r4,r3,0	 # move reg to reg
	l.lwz   	r3,-28(r2)	 # SI load
	l.sfles 	r4,r3 # cmpsi_le
	l.bf	.L8
	l.nop			# nop delay slot
	l.lwz   	r3,-80(r2)	 # SI load
	l.ori   	r4,r3,0	 # move reg to reg
	l.lwz   	r3,-24(r2)	 # SI load
	l.add   	r3,r3,r4 # addsi3
	l.lbz   	r3,0(r3)	 # zero_extendqisi2
	l.ori   	r4,r3,0	 # move reg to reg
	l.lwz   	r3,-28(r2)	 # SI load
	l.sfles 	r4,r3 # cmpsi_le
	l.bf	.L9
	l.nop			# nop delay slot
	l.lwz   	r3,-76(r2)	 # SI load
	l.ori   	r4,r3,0	 # move reg to reg
	l.lwz   	r3,-24(r2)	 # SI load
	l.add   	r3,r3,r4 # addsi3
	l.lbz   	r3,0(r3)	 # zero_extendqisi2
	l.ori   	r4,r3,0	 # move reg to reg
	l.lwz   	r3,-28(r2)	 # SI load
	l.sfles 	r4,r3 # cmpsi_le
	l.bf	.L10
	l.nop			# nop delay slot
	l.lwz   	r3,-72(r2)	 # SI load
	l.ori   	r4,r3,0	 # move reg to reg
	l.lwz   	r3,-24(r2)	 # SI load
	l.add   	r3,r3,r4 # addsi3
	l.lbz   	r3,0(r3)	 # zero_extendqisi2
	l.ori   	r4,r3,0	 # move reg to reg
	l.lwz   	r3,-28(r2)	 # SI load
	l.sfles 	r4,r3 # cmpsi_le
	l.bf	.L11
	l.nop			# nop delay slot
	l.lwz   	r3,-68(r2)	 # SI load
	l.ori   	r4,r3,0	 # move reg to reg
	l.lwz   	r3,-24(r2)	 # SI load
	l.add   	r3,r3,r4 # addsi3
	l.lbz   	r3,0(r3)	 # zero_extendqisi2
	l.ori   	r4,r3,0	 # move reg to reg
	l.lwz   	r3,-28(r2)	 # SI load
	l.sfles 	r4,r3 # cmpsi_le
	l.bf	.L12
	l.nop			# nop delay slot
	l.lwz   	r3,-64(r2)	 # SI load
	l.ori   	r4,r3,0	 # move reg to reg
	l.lwz   	r3,-24(r2)	 # SI load
	l.add   	r3,r3,r4 # addsi3
	l.lbz   	r3,0(r3)	 # zero_extendqisi2
	l.ori   	r4,r3,0	 # move reg to reg
	l.lwz   	r3,-28(r2)	 # SI load
	l.sfgts 	r4,r3 # cmpsi_gt
	l.bf	.L13
	l.nop			# nop delay slot
	l.lwz   	r3,-36(r2)	 # SI load
	l.ori   	r4,r3,0	 # move reg to reg
	l.lwz   	r3,-24(r2)	 # SI load
	l.add   	r3,r3,r4 # addsi3
	l.lbz   	r3,0(r3)	 # zero_extendqisi2
	l.ori   	r4,r3,0	 # move reg to reg
	l.lwz   	r3,-28(r2)	 # SI load
	l.sfgts 	r4,r3 # cmpsi_gt
	l.bf	.L13
	l.nop			# nop delay slot
	l.j     	.L14 # jump_internal
	l.nop			# nop delay slot
.L12:
	l.lwz   	r3,-68(r2)	 # SI load
	l.ori   	r4,r3,0	 # move reg to reg
	l.lwz   	r3,-24(r2)	 # SI load
	l.add   	r3,r3,r4 # addsi3
	l.lbz   	r3,0(r3)	 # zero_extendqisi2
	l.ori   	r4,r3,0	 # move reg to reg
	l.lwz   	r3,-32(r2)	 # SI load
	l.sfges 	r4,r3 # cmpsi_ge
	l.bf	.L15
	l.nop			# nop delay slot
	l.lwz   	r3,-40(r2)	 # SI load
	l.ori   	r4,r3,0	 # move reg to reg
	l.lwz   	r3,-24(r2)	 # SI load
	l.add   	r3,r3,r4 # addsi3
	l.lbz   	r3,0(r3)	 # zero_extendqisi2
	l.ori   	r4,r3,0	 # move reg to reg
	l.lwz   	r3,-28(r2)	 # SI load
	l.sfles 	r4,r3 # cmpsi_le
	l.bf	.L16
	l.nop			# nop delay slot
	l.lwz   	r3,-36(r2)	 # SI load
	l.ori   	r4,r3,0	 # move reg to reg
	l.lwz   	r3,-24(r2)	 # SI load
	l.add   	r3,r3,r4 # addsi3
	l.lbz   	r3,0(r3)	 # zero_extendqisi2
	l.ori   	r4,r3,0	 # move reg to reg
	l.lwz   	r3,-28(r2)	 # SI load
	l.sfgts 	r4,r3 # cmpsi_gt
	l.bf	.L13
	l.nop			# nop delay slot
	l.j     	.L14 # jump_internal
	l.nop			# nop delay slot
.L16:
	l.lwz   	r3,-40(r2)	 # SI load
	l.ori   	r4,r3,0	 # move reg to reg
	l.lwz   	r3,-24(r2)	 # SI load
	l.add   	r3,r3,r4 # addsi3
	l.lbz   	r3,0(r3)	 # zero_extendqisi2
	l.ori   	r4,r3,0	 # move reg to reg
	l.lwz   	r3,-32(r2)	 # SI load
	l.sfges 	r4,r3 # cmpsi_ge
	l.bf	.L790
	l.nop			# nop delay slot
	l.lwz   	r3,-64(r2)	 # SI load
	l.ori   	r4,r3,0	 # move reg to reg
	l.lwz   	r3,-24(r2)	 # SI load
	l.add   	r3,r3,r4 # addsi3
	l.lbz   	r3,0(r3)	 # zero_extendqisi2
	l.ori   	r4,r3,0	 # move reg to reg
	l.lwz   	r3,-32(r2)	 # SI load
	l.sfges 	r4,r3 # cmpsi_ge
	l.bf	.L791
	l.nop			# nop delay slot
	l.lwz   	r3,-60(r2)	 # SI load
	l.ori   	r4,r3,0	 # move reg to reg
	l.lwz   	r3,-24(r2)	 # SI load
	l.add   	r3,r3,r4 # addsi3
	l.lbz   	r3,0(r3)	 # zero_extendqisi2
	l.ori   	r4,r3,0	 # move reg to reg
	l.lwz   	r3,-32(r2)	 # SI load
	l.sfges 	r4,r3 # cmpsi_ge
	l.bf	.L792
	l.nop			# nop delay slot
	l.lwz   	r3,-56(r2)	 # SI load
	l.ori   	r4,r3,0	 # move reg to reg
	l.lwz   	r3,-24(r2)	 # SI load
	l.add   	r3,r3,r4 # addsi3
	l.lbz   	r3,0(r3)	 # zero_extendqisi2
	l.ori   	r4,r3,0	 # move reg to reg
	l.lwz   	r3,-32(r2)	 # SI load
	l.sfges 	r4,r3 # cmpsi_ge
	l.bf	.L793
	l.nop			# nop delay slot
	l.lwz   	r3,-52(r2)	 # SI load
	l.ori   	r4,r3,0	 # move reg to reg
	l.lwz   	r3,-24(r2)	 # SI load
	l.add   	r3,r3,r4 # addsi3
	l.lbz   	r3,0(r3)	 # zero_extendqisi2
	l.ori   	r4,r3,0	 # move reg to reg
	l.lwz   	r3,-32(r2)	 # SI load
	l.sfges 	r4,r3 # cmpsi_ge
	l.bf	.L794
	l.nop			# nop delay slot
	l.lwz   	r3,-48(r2)	 # SI load
	l.ori   	r4,r3,0	 # move reg to reg
	l.lwz   	r3,-24(r2)	 # SI load
	l.add   	r3,r3,r4 # addsi3
	l.lbz   	r3,0(r3)	 # zero_extendqisi2
	l.ori   	r4,r3,0	 # move reg to reg
	l.lwz   	r3,-32(r2)	 # SI load
	l.sfges 	r4,r3 # cmpsi_ge
	l.bf	.L795
	l.nop			# nop delay slot
	l.lwz   	r3,-44(r2)	 # SI load
	l.ori   	r4,r3,0	 # move reg to reg
	l.lwz   	r3,-24(r2)	 # SI load
	l.add   	r3,r3,r4 # addsi3
	l.lbz   	r3,0(r3)	 # zero_extendqisi2
	l.ori   	r4,r3,0	 # move reg to reg
	l.lwz   	r3,-32(r2)	 # SI load
	l.sfges 	r4,r3 # cmpsi_ge
	l.bf	.L796
	l.nop			# nop delay slot
	l.lwz   	r3,-36(r2)	 # SI load
	l.ori   	r4,r3,0	 # move reg to reg
	l.lwz   	r3,-24(r2)	 # SI load
	l.add   	r3,r3,r4 # addsi3
	l.lbz   	r3,0(r3)	 # zero_extendqisi2
	l.ori   	r4,r3,0	 # move reg to reg
	l.lwz   	r3,-32(r2)	 # SI load
	l.sflts 	r4,r3 # cmpsi_lt
	l.bf	.L13
	l.nop			# nop delay slot
	l.j     	.L14 # jump_internal
	l.nop			# nop delay slot
.L15:
	l.lwz   	r3,-40(r2)	 # SI load
	l.ori   	r4,r3,0	 # move reg to reg
	l.lwz   	r3,-24(r2)	 # SI load
	l.add   	r3,r3,r4 # addsi3
	l.lbz   	r3,0(r3)	 # zero_extendqisi2
	l.ori   	r4,r3,0	 # move reg to reg
	l.lwz   	r3,-28(r2)	 # SI load
	l.sfles 	r4,r3 # cmpsi_le
	l.bf	.L797
	l.nop			# nop delay slot
	l.lwz   	r3,-36(r2)	 # SI load
	l.ori   	r4,r3,0	 # move reg to reg
	l.lwz   	r3,-24(r2)	 # SI load
	l.add   	r3,r3,r4 # addsi3
	l.lbz   	r3,0(r3)	 # zero_extendqisi2
	l.ori   	r4,r3,0	 # move reg to reg
	l.lwz   	r3,-28(r2)	 # SI load
	l.sfgts 	r4,r3 # cmpsi_gt
	l.bf	.L13
	l.nop			# nop delay slot
	l.j     	.L14 # jump_internal
	l.nop			# nop delay slot
.L11:
	l.lwz   	r3,-72(r2)	 # SI load
	l.ori   	r4,r3,0	 # move reg to reg
	l.lwz   	r3,-24(r2)	 # SI load
	l.add   	r3,r3,r4 # addsi3
	l.lbz   	r3,0(r3)	 # zero_extendqisi2
	l.ori   	r4,r3,0	 # move reg to reg
	l.lwz   	r3,-32(r2)	 # SI load
	l.sfges 	r4,r3 # cmpsi_ge
	l.bf	.L25
	l.nop			# nop delay slot
	l.lwz   	r3,-36(r2)	 # SI load
	l.ori   	r4,r3,0	 # move reg to reg
	l.lwz   	r3,-24(r2)	 # SI load
	l.add   	r3,r3,r4 # addsi3
	l.lbz   	r3,0(r3)	 # zero_extendqisi2
	l.ori   	r4,r3,0	 # move reg to reg
	l.lwz   	r3,-28(r2)	 # SI load
	l.sfles 	r4,r3 # cmpsi_le
	l.bf	.L26
	l.nop			# nop delay slot
	l.lwz   	r3,-44(r2)	 # SI load
	l.ori   	r4,r3,0	 # move reg to reg
	l.lwz   	r3,-24(r2)	 # SI load
	l.add   	r3,r3,r4 # addsi3
	l.lbz   	r3,0(r3)	 # zero_extendqisi2
	l.ori   	r4,r3,0	 # move reg to reg
	l.lwz   	r3,-28(r2)	 # SI load
	l.sfles 	r4,r3 # cmpsi_le
	l.bf	.L27
	l.nop			# nop delay slot
	l.lwz   	r3,-40(r2)	 # SI load
	l.ori   	r4,r3,0	 # move reg to reg
	l.lwz   	r3,-24(r2)	 # SI load
	l.add   	r3,r3,r4 # addsi3
	l.lbz   	r3,0(r3)	 # zero_extendqisi2
	l.ori   	r4,r3,0	 # move reg to reg
	l.lwz   	r3,-28(r2)	 # SI load
	l.sfgts 	r4,r3 # cmpsi_gt
	l.bf	.L13
	l.nop			# nop delay slot
	l.j     	.L14 # jump_internal
	l.nop			# nop delay slot
.L27:
	l.lwz   	r3,-44(r2)	 # SI load
	l.ori   	r4,r3,0	 # move reg to reg
	l.lwz   	r3,-24(r2)	 # SI load
	l.add   	r3,r3,r4 # addsi3
	l.lbz   	r3,0(r3)	 # zero_extendqisi2
	l.ori   	r4,r3,0	 # move reg to reg
	l.lwz   	r3,-32(r2)	 # SI load
	l.sfges 	r4,r3 # cmpsi_ge
	l.bf	.L798
	l.nop			# nop delay slot
	l.lwz   	r3,-68(r2)	 # SI load
	l.ori   	r4,r3,0	 # move reg to reg
	l.lwz   	r3,-24(r2)	 # SI load
	l.add   	r3,r3,r4 # addsi3
	l.lbz   	r3,0(r3)	 # zero_extendqisi2
	l.ori   	r4,r3,0	 # move reg to reg
	l.lwz   	r3,-32(r2)	 # SI load
	l.sfges 	r4,r3 # cmpsi_ge
	l.bf	.L799
	l.nop			# nop delay slot
	l.lwz   	r3,-64(r2)	 # SI load
	l.ori   	r4,r3,0	 # move reg to reg
	l.lwz   	r3,-24(r2)	 # SI load
	l.add   	r3,r3,r4 # addsi3
	l.lbz   	r3,0(r3)	 # zero_extendqisi2
	l.ori   	r4,r3,0	 # move reg to reg
	l.lwz   	r3,-32(r2)	 # SI load
	l.sfges 	r4,r3 # cmpsi_ge
	l.bf	.L800
	l.nop			# nop delay slot
	l.lwz   	r3,-60(r2)	 # SI load
	l.ori   	r4,r3,0	 # move reg to reg
	l.lwz   	r3,-24(r2)	 # SI load
	l.add   	r3,r3,r4 # addsi3
	l.lbz   	r3,0(r3)	 # zero_extendqisi2
	l.ori   	r4,r3,0	 # move reg to reg
	l.lwz   	r3,-32(r2)	 # SI load
	l.sfges 	r4,r3 # cmpsi_ge
	l.bf	.L801
	l.nop			# nop delay slot
	l.lwz   	r3,-56(r2)	 # SI load
	l.ori   	r4,r3,0	 # move reg to reg
	l.lwz   	r3,-24(r2)	 # SI load
	l.add   	r3,r3,r4 # addsi3
	l.lbz   	r3,0(r3)	 # zero_extendqisi2
	l.ori   	r4,r3,0	 # move reg to reg
	l.lwz   	r3,-32(r2)	 # SI load
	l.sfges 	r4,r3 # cmpsi_ge
	l.bf	.L802
	l.nop			# nop delay slot
	l.lwz   	r3,-52(r2)	 # SI load
	l.ori   	r4,r3,0	 # move reg to reg
	l.lwz   	r3,-24(r2)	 # SI load
	l.add   	r3,r3,r4 # addsi3
	l.lbz   	r3,0(r3)	 # zero_extendqisi2
	l.ori   	r4,r3,0	 # move reg to reg
	l.lwz   	r3,-32(r2)	 # SI load
	l.sfges 	r4,r3 # cmpsi_ge
	l.bf	.L803
	l.nop			# nop delay slot
	l.lwz   	r3,-48(r2)	 # SI load
	l.ori   	r4,r3,0	 # move reg to reg
	l.lwz   	r3,-24(r2)	 # SI load
	l.add   	r3,r3,r4 # addsi3
	l.lbz   	r3,0(r3)	 # zero_extendqisi2
	l.ori   	r4,r3,0	 # move reg to reg
	l.lwz   	r3,-32(r2)	 # SI load
	l.sfges 	r4,r3 # cmpsi_ge
	l.bf	.L804
	l.nop			# nop delay slot
	l.lwz   	r3,-40(r2)	 # SI load
	l.ori   	r4,r3,0	 # move reg to reg
	l.lwz   	r3,-24(r2)	 # SI load
	l.add   	r3,r3,r4 # addsi3
	l.lbz   	r3,0(r3)	 # zero_extendqisi2
	l.ori   	r4,r3,0	 # move reg to reg
	l.lwz   	r3,-32(r2)	 # SI load
	l.sflts 	r4,r3 # cmpsi_lt
	l.bf	.L13
	l.nop			# nop delay slot
	l.j     	.L14 # jump_internal
	l.nop			# nop delay slot
.L26:
	l.lwz   	r3,-68(r2)	 # SI load
	l.ori   	r4,r3,0	 # move reg to reg
	l.lwz   	r3,-24(r2)	 # SI load
	l.add   	r3,r3,r4 # addsi3
	l.lbz   	r3,0(r3)	 # zero_extendqisi2
	l.ori   	r4,r3,0	 # move reg to reg
	l.lwz   	r3,-32(r2)	 # SI load
	l.sfges 	r4,r3 # cmpsi_ge
	l.bf	.L805
	l.nop			# nop delay slot
	l.lwz   	r3,-64(r2)	 # SI load
	l.ori   	r4,r3,0	 # move reg to reg
	l.lwz   	r3,-24(r2)	 # SI load
	l.add   	r3,r3,r4 # addsi3
	l.lbz   	r3,0(r3)	 # zero_extendqisi2
	l.ori   	r4,r3,0	 # move reg to reg
	l.lwz   	r3,-32(r2)	 # SI load
	l.sfges 	r4,r3 # cmpsi_ge
	l.bf	.L806
	l.nop			# nop delay slot
	l.lwz   	r3,-60(r2)	 # SI load
	l.ori   	r4,r3,0	 # move reg to reg
	l.lwz   	r3,-24(r2)	 # SI load
	l.add   	r3,r3,r4 # addsi3
	l.lbz   	r3,0(r3)	 # zero_extendqisi2
	l.ori   	r4,r3,0	 # move reg to reg
	l.lwz   	r3,-32(r2)	 # SI load
	l.sfges 	r4,r3 # cmpsi_ge
	l.bf	.L807
	l.nop			# nop delay slot
	l.lwz   	r3,-56(r2)	 # SI load
	l.ori   	r4,r3,0	 # move reg to reg
	l.lwz   	r3,-24(r2)	 # SI load
	l.add   	r3,r3,r4 # addsi3
	l.lbz   	r3,0(r3)	 # zero_extendqisi2
	l.ori   	r4,r3,0	 # move reg to reg
	l.lwz   	r3,-32(r2)	 # SI load
	l.sfges 	r4,r3 # cmpsi_ge
	l.bf	.L808
	l.nop			# nop delay slot
	l.lwz   	r3,-52(r2)	 # SI load
	l.ori   	r4,r3,0	 # move reg to reg
	l.lwz   	r3,-24(r2)	 # SI load
	l.add   	r3,r3,r4 # addsi3
	l.lbz   	r3,0(r3)	 # zero_extendqisi2
	l.ori   	r4,r3,0	 # move reg to reg
	l.lwz   	r3,-32(r2)	 # SI load
	l.sfges 	r4,r3 # cmpsi_ge
	l.bf	.L809
	l.nop			# nop delay slot
	l.lwz   	r3,-48(r2)	 # SI load
	l.ori   	r4,r3,0	 # move reg to reg
	l.lwz   	r3,-24(r2)	 # SI load
	l.add   	r3,r3,r4 # addsi3
	l.lbz   	r3,0(r3)	 # zero_extendqisi2
	l.ori   	r4,r3,0	 # move reg to reg
	l.lwz   	r3,-32(r2)	 # SI load
	l.sfges 	r4,r3 # cmpsi_ge
	l.bf	.L810
	l.nop			# nop delay slot
	l.lwz   	r3,-44(r2)	 # SI load
	l.ori   	r4,r3,0	 # move reg to reg
	l.lwz   	r3,-24(r2)	 # SI load
	l.add   	r3,r3,r4 # addsi3
	l.lbz   	r3,0(r3)	 # zero_extendqisi2
	l.ori   	r4,r3,0	 # move reg to reg
	l.lwz   	r3,-32(r2)	 # SI load
	l.sfges 	r4,r3 # cmpsi_ge
	l.bf	.L811
	l.nop			# nop delay slot
	l.lwz   	r3,-40(r2)	 # SI load
	l.ori   	r4,r3,0	 # move reg to reg
	l.lwz   	r3,-24(r2)	 # SI load
	l.add   	r3,r3,r4 # addsi3
	l.lbz   	r3,0(r3)	 # zero_extendqisi2
	l.ori   	r4,r3,0	 # move reg to reg
	l.lwz   	r3,-32(r2)	 # SI load
	l.sflts 	r4,r3 # cmpsi_lt
	l.bf	.L13
	l.nop			# nop delay slot
	l.j     	.L14 # jump_internal
	l.nop			# nop delay slot
.L25:
	l.lwz   	r3,-44(r2)	 # SI load
	l.ori   	r4,r3,0	 # move reg to reg
	l.lwz   	r3,-24(r2)	 # SI load
	l.add   	r3,r3,r4 # addsi3
	l.lbz   	r3,0(r3)	 # zero_extendqisi2
	l.ori   	r4,r3,0	 # move reg to reg
	l.lwz   	r3,-28(r2)	 # SI load
	l.sfles 	r4,r3 # cmpsi_le
	l.bf	.L42
	l.nop			# nop delay slot
	l.lwz   	r3,-40(r2)	 # SI load
	l.ori   	r4,r3,0	 # move reg to reg
	l.lwz   	r3,-24(r2)	 # SI load
	l.add   	r3,r3,r4 # addsi3
	l.lbz   	r3,0(r3)	 # zero_extendqisi2
	l.ori   	r4,r3,0	 # move reg to reg
	l.lwz   	r3,-28(r2)	 # SI load
	l.sfles 	r4,r3 # cmpsi_le
	l.bf	.L812
	l.nop			# nop delay slot
	l.lwz   	r3,-36(r2)	 # SI load
	l.ori   	r4,r3,0	 # move reg to reg
	l.lwz   	r3,-24(r2)	 # SI load
	l.add   	r3,r3,r4 # addsi3
	l.lbz   	r3,0(r3)	 # zero_extendqisi2
	l.ori   	r4,r3,0	 # move reg to reg
	l.lwz   	r3,-28(r2)	 # SI load
	l.sfgts 	r4,r3 # cmpsi_gt
	l.bf	.L13
	l.nop			# nop delay slot
	l.j     	.L14 # jump_internal
	l.nop			# nop delay slot
.L42:
	l.lwz   	r3,-44(r2)	 # SI load
	l.ori   	r4,r3,0	 # move reg to reg
	l.lwz   	r3,-24(r2)	 # SI load
	l.add   	r3,r3,r4 # addsi3
	l.lbz   	r3,0(r3)	 # zero_extendqisi2
	l.ori   	r4,r3,0	 # move reg to reg
	l.lwz   	r3,-32(r2)	 # SI load
	l.sfges 	r4,r3 # cmpsi_ge
	l.bf	.L813
	l.nop			# nop delay slot
	l.lwz   	r3,-68(r2)	 # SI load
	l.ori   	r4,r3,0	 # move reg to reg
	l.lwz   	r3,-24(r2)	 # SI load
	l.add   	r3,r3,r4 # addsi3
	l.lbz   	r3,0(r3)	 # zero_extendqisi2
	l.ori   	r4,r3,0	 # move reg to reg
	l.lwz   	r3,-32(r2)	 # SI load
	l.sfges 	r4,r3 # cmpsi_ge
	l.bf	.L814
	l.nop			# nop delay slot
	l.lwz   	r3,-64(r2)	 # SI load
	l.ori   	r4,r3,0	 # move reg to reg
	l.lwz   	r3,-24(r2)	 # SI load
	l.add   	r3,r3,r4 # addsi3
	l.lbz   	r3,0(r3)	 # zero_extendqisi2
	l.ori   	r4,r3,0	 # move reg to reg
	l.lwz   	r3,-32(r2)	 # SI load
	l.sfges 	r4,r3 # cmpsi_ge
	l.bf	.L815
	l.nop			# nop delay slot
	l.lwz   	r3,-60(r2)	 # SI load
	l.ori   	r4,r3,0	 # move reg to reg
	l.lwz   	r3,-24(r2)	 # SI load
	l.add   	r3,r3,r4 # addsi3
	l.lbz   	r3,0(r3)	 # zero_extendqisi2
	l.ori   	r4,r3,0	 # move reg to reg
	l.lwz   	r3,-32(r2)	 # SI load
	l.sfges 	r4,r3 # cmpsi_ge
	l.bf	.L816
	l.nop			# nop delay slot
	l.lwz   	r3,-56(r2)	 # SI load
	l.ori   	r4,r3,0	 # move reg to reg
	l.lwz   	r3,-24(r2)	 # SI load
	l.add   	r3,r3,r4 # addsi3
	l.lbz   	r3,0(r3)	 # zero_extendqisi2
	l.ori   	r4,r3,0	 # move reg to reg
	l.lwz   	r3,-32(r2)	 # SI load
	l.sfges 	r4,r3 # cmpsi_ge
	l.bf	.L817
	l.nop			# nop delay slot
	l.lwz   	r3,-52(r2)	 # SI load
	l.ori   	r4,r3,0	 # move reg to reg
	l.lwz   	r3,-24(r2)	 # SI load
	l.add   	r3,r3,r4 # addsi3
	l.lbz   	r3,0(r3)	 # zero_extendqisi2
	l.ori   	r4,r3,0	 # move reg to reg
	l.lwz   	r3,-32(r2)	 # SI load
	l.sfges 	r4,r3 # cmpsi_ge
	l.bf	.L818
	l.nop			# nop delay slot
	l.lwz   	r3,-48(r2)	 # SI load
	l.ori   	r4,r3,0	 # move reg to reg
	l.lwz   	r3,-24(r2)	 # SI load
	l.add   	r3,r3,r4 # addsi3
	l.lbz   	r3,0(r3)	 # zero_extendqisi2
	l.ori   	r4,r3,0	 # move reg to reg
	l.lwz   	r3,-32(r2)	 # SI load
	l.sfges 	r4,r3 # cmpsi_ge
	l.bf	.L819
	l.nop			# nop delay slot
	l.lwz   	r3,-40(r2)	 # SI load
	l.ori   	r4,r3,0	 # move reg to reg
	l.lwz   	r3,-24(r2)	 # SI load
	l.add   	r3,r3,r4 # addsi3
	l.lbz   	r3,0(r3)	 # zero_extendqisi2
	l.ori   	r4,r3,0	 # move reg to reg
	l.lwz   	r3,-32(r2)	 # SI load
	l.sfges 	r4,r3 # cmpsi_ge
	l.bf	.L820
	l.nop			# nop delay slot
	l.lwz   	r3,-36(r2)	 # SI load
	l.ori   	r4,r3,0	 # move reg to reg
	l.lwz   	r3,-24(r2)	 # SI load
	l.add   	r3,r3,r4 # addsi3
	l.lbz   	r3,0(r3)	 # zero_extendqisi2
	l.ori   	r4,r3,0	 # move reg to reg
	l.lwz   	r3,-32(r2)	 # SI load
	l.sflts 	r4,r3 # cmpsi_lt
	l.bf	.L13
	l.nop			# nop delay slot
	l.j     	.L14 # jump_internal
	l.nop			# nop delay slot
.L10:
	l.lwz   	r3,-76(r2)	 # SI load
	l.ori   	r4,r3,0	 # move reg to reg
	l.lwz   	r3,-24(r2)	 # SI load
	l.add   	r3,r3,r4 # addsi3
	l.lbz   	r3,0(r3)	 # zero_extendqisi2
	l.ori   	r4,r3,0	 # move reg to reg
	l.lwz   	r3,-32(r2)	 # SI load
	l.sfges 	r4,r3 # cmpsi_ge
	l.bf	.L52
	l.nop			# nop delay slot
	l.lwz   	r3,-40(r2)	 # SI load
	l.ori   	r4,r3,0	 # move reg to reg
	l.lwz   	r3,-24(r2)	 # SI load
	l.add   	r3,r3,r4 # addsi3
	l.lbz   	r3,0(r3)	 # zero_extendqisi2
	l.ori   	r4,r3,0	 # move reg to reg
	l.lwz   	r3,-28(r2)	 # SI load
	l.sfles 	r4,r3 # cmpsi_le
	l.bf	.L53
	l.nop			# nop delay slot
	l.lwz   	r3,-48(r2)	 # SI load
	l.ori   	r4,r3,0	 # move reg to reg
	l.lwz   	r3,-24(r2)	 # SI load
	l.add   	r3,r3,r4 # addsi3
	l.lbz   	r3,0(r3)	 # zero_extendqisi2
	l.ori   	r4,r3,0	 # move reg to reg
	l.lwz   	r3,-28(r2)	 # SI load
	l.sfles 	r4,r3 # cmpsi_le
	l.bf	.L54
	l.nop			# nop delay slot
	l.lwz   	r3,-44(r2)	 # SI load
	l.ori   	r4,r3,0	 # move reg to reg
	l.lwz   	r3,-24(r2)	 # SI load
	l.add   	r3,r3,r4 # addsi3
	l.lbz   	r3,0(r3)	 # zero_extendqisi2
	l.ori   	r4,r3,0	 # move reg to reg
	l.lwz   	r3,-28(r2)	 # SI load
	l.sfles 	r4,r3 # cmpsi_le
	l.bf	.L821
	l.nop			# nop delay slot
	l.lwz   	r3,-36(r2)	 # SI load
	l.ori   	r4,r3,0	 # move reg to reg
	l.lwz   	r3,-24(r2)	 # SI load
	l.add   	r3,r3,r4 # addsi3
	l.lbz   	r3,0(r3)	 # zero_extendqisi2
	l.ori   	r4,r3,0	 # move reg to reg
	l.lwz   	r3,-28(r2)	 # SI load
	l.sfgts 	r4,r3 # cmpsi_gt
	l.bf	.L13
	l.nop			# nop delay slot
	l.lwz   	r3,-72(r2)	 # SI load
	l.ori   	r4,r3,0	 # move reg to reg
	l.lwz   	r3,-24(r2)	 # SI load
	l.add   	r3,r3,r4 # addsi3
	l.lbz   	r3,0(r3)	 # zero_extendqisi2
	l.ori   	r4,r3,0	 # move reg to reg
	l.lwz   	r3,-28(r2)	 # SI load
	l.sfles 	r4,r3 # cmpsi_le
	l.bf	.L822
	l.nop			# nop delay slot
	l.lwz   	r3,-68(r2)	 # SI load
	l.ori   	r4,r3,0	 # move reg to reg
	l.lwz   	r3,-24(r2)	 # SI load
	l.add   	r3,r3,r4 # addsi3
	l.lbz   	r3,0(r3)	 # zero_extendqisi2
	l.ori   	r4,r3,0	 # move reg to reg
	l.lwz   	r3,-28(r2)	 # SI load
	l.sfles 	r4,r3 # cmpsi_le
	l.bf	.L823
	l.nop			# nop delay slot
	l.lwz   	r3,-64(r2)	 # SI load
	l.ori   	r4,r3,0	 # move reg to reg
	l.lwz   	r3,-24(r2)	 # SI load
	l.add   	r3,r3,r4 # addsi3
	l.lbz   	r3,0(r3)	 # zero_extendqisi2
	l.ori   	r4,r3,0	 # move reg to reg
	l.lwz   	r3,-28(r2)	 # SI load
	l.sfles 	r4,r3 # cmpsi_le
	l.bf	.L824
	l.nop			# nop delay slot
	l.lwz   	r3,-60(r2)	 # SI load
	l.ori   	r4,r3,0	 # move reg to reg
	l.lwz   	r3,-24(r2)	 # SI load
	l.add   	r3,r3,r4 # addsi3
	l.lbz   	r3,0(r3)	 # zero_extendqisi2
	l.ori   	r4,r3,0	 # move reg to reg
	l.lwz   	r3,-28(r2)	 # SI load
	l.sfles 	r4,r3 # cmpsi_le
	l.bf	.L825
	l.nop			# nop delay slot
	l.lwz   	r3,-56(r2)	 # SI load
	l.ori   	r4,r3,0	 # move reg to reg
	l.lwz   	r3,-24(r2)	 # SI load
	l.add   	r3,r3,r4 # addsi3
	l.lbz   	r3,0(r3)	 # zero_extendqisi2
	l.ori   	r4,r3,0	 # move reg to reg
	l.lwz   	r3,-28(r2)	 # SI load
	l.sfles 	r4,r3 # cmpsi_le
	l.bf	.L826
	l.nop			# nop delay slot
	l.lwz   	r3,-52(r2)	 # SI load
	l.ori   	r4,r3,0	 # move reg to reg
	l.lwz   	r3,-24(r2)	 # SI load
	l.add   	r3,r3,r4 # addsi3
	l.lbz   	r3,0(r3)	 # zero_extendqisi2
	l.ori   	r4,r3,0	 # move reg to reg
	l.lwz   	r3,-28(r2)	 # SI load
	l.sfgts 	r4,r3 # cmpsi_gt
	l.bf	.L13
	l.nop			# nop delay slot
	l.j     	.L14 # jump_internal
	l.nop			# nop delay slot
.L54:
	l.lwz   	r3,-48(r2)	 # SI load
	l.ori   	r4,r3,0	 # move reg to reg
	l.lwz   	r3,-24(r2)	 # SI load
	l.add   	r3,r3,r4 # addsi3
	l.lbz   	r3,0(r3)	 # zero_extendqisi2
	l.ori   	r4,r3,0	 # move reg to reg
	l.lwz   	r3,-32(r2)	 # SI load
	l.sfges 	r4,r3 # cmpsi_ge
	l.bf	.L827
	l.nop			# nop delay slot
	l.lwz   	r3,-72(r2)	 # SI load
	l.ori   	r4,r3,0	 # move reg to reg
	l.lwz   	r3,-24(r2)	 # SI load
	l.add   	r3,r3,r4 # addsi3
	l.lbz   	r3,0(r3)	 # zero_extendqisi2
	l.ori   	r4,r3,0	 # move reg to reg
	l.lwz   	r3,-32(r2)	 # SI load
	l.sfges 	r4,r3 # cmpsi_ge
	l.bf	.L828
	l.nop			# nop delay slot
	l.lwz   	r3,-68(r2)	 # SI load
	l.ori   	r4,r3,0	 # move reg to reg
	l.lwz   	r3,-24(r2)	 # SI load
	l.add   	r3,r3,r4 # addsi3
	l.lbz   	r3,0(r3)	 # zero_extendqisi2
	l.ori   	r4,r3,0	 # move reg to reg
	l.lwz   	r3,-32(r2)	 # SI load
	l.sfges 	r4,r3 # cmpsi_ge
	l.bf	.L829
	l.nop			# nop delay slot
	l.lwz   	r3,-64(r2)	 # SI load
	l.ori   	r4,r3,0	 # move reg to reg
	l.lwz   	r3,-24(r2)	 # SI load
	l.add   	r3,r3,r4 # addsi3
	l.lbz   	r3,0(r3)	 # zero_extendqisi2
	l.ori   	r4,r3,0	 # move reg to reg
	l.lwz   	r3,-32(r2)	 # SI load
	l.sfges 	r4,r3 # cmpsi_ge
	l.bf	.L830
	l.nop			# nop delay slot
	l.lwz   	r3,-60(r2)	 # SI load
	l.ori   	r4,r3,0	 # move reg to reg
	l.lwz   	r3,-24(r2)	 # SI load
	l.add   	r3,r3,r4 # addsi3
	l.lbz   	r3,0(r3)	 # zero_extendqisi2
	l.ori   	r4,r3,0	 # move reg to reg
	l.lwz   	r3,-32(r2)	 # SI load
	l.sfges 	r4,r3 # cmpsi_ge
	l.bf	.L831
	l.nop			# nop delay slot
	l.lwz   	r3,-56(r2)	 # SI load
	l.ori   	r4,r3,0	 # move reg to reg
	l.lwz   	r3,-24(r2)	 # SI load
	l.add   	r3,r3,r4 # addsi3
	l.lbz   	r3,0(r3)	 # zero_extendqisi2
	l.ori   	r4,r3,0	 # move reg to reg
	l.lwz   	r3,-32(r2)	 # SI load
	l.sfges 	r4,r3 # cmpsi_ge
	l.bf	.L832
	l.nop			# nop delay slot
	l.lwz   	r3,-52(r2)	 # SI load
	l.ori   	r4,r3,0	 # move reg to reg
	l.lwz   	r3,-24(r2)	 # SI load
	l.add   	r3,r3,r4 # addsi3
	l.lbz   	r3,0(r3)	 # zero_extendqisi2
	l.ori   	r4,r3,0	 # move reg to reg
	l.lwz   	r3,-32(r2)	 # SI load
	l.sfges 	r4,r3 # cmpsi_ge
	l.bf	.L833
	l.nop			# nop delay slot
	l.lwz   	r3,-44(r2)	 # SI load
	l.ori   	r4,r3,0	 # move reg to reg
	l.lwz   	r3,-24(r2)	 # SI load
	l.add   	r3,r3,r4 # addsi3
	l.lbz   	r3,0(r3)	 # zero_extendqisi2
	l.ori   	r4,r3,0	 # move reg to reg
	l.lwz   	r3,-32(r2)	 # SI load
	l.sflts 	r4,r3 # cmpsi_lt
	l.bf	.L13
	l.nop			# nop delay slot
	l.j     	.L14 # jump_internal
	l.nop			# nop delay slot
.L53:
	l.lwz   	r3,-40(r2)	 # SI load
	l.ori   	r4,r3,0	 # move reg to reg
	l.lwz   	r3,-24(r2)	 # SI load
	l.add   	r3,r3,r4 # addsi3
	l.lbz   	r3,0(r3)	 # zero_extendqisi2
	l.ori   	r4,r3,0	 # move reg to reg
	l.lwz   	r3,-32(r2)	 # SI load
	l.sfges 	r4,r3 # cmpsi_ge
	l.bf	.L68
	l.nop			# nop delay slot
	l.lwz   	r3,-68(r2)	 # SI load
	l.ori   	r4,r3,0	 # move reg to reg
	l.lwz   	r3,-24(r2)	 # SI load
	l.add   	r3,r3,r4 # addsi3
	l.lbz   	r3,0(r3)	 # zero_extendqisi2
	l.ori   	r4,r3,0	 # move reg to reg
	l.lwz   	r3,-32(r2)	 # SI load
	l.sfges 	r4,r3 # cmpsi_ge
	l.bf	.L834
	l.nop			# nop delay slot
	l.lwz   	r3,-64(r2)	 # SI load
	l.ori   	r4,r3,0	 # move reg to reg
	l.lwz   	r3,-24(r2)	 # SI load
	l.add   	r3,r3,r4 # addsi3
	l.lbz   	r3,0(r3)	 # zero_extendqisi2
	l.ori   	r4,r3,0	 # move reg to reg
	l.lwz   	r3,-32(r2)	 # SI load
	l.sfges 	r4,r3 # cmpsi_ge
	l.bf	.L835
	l.nop			# nop delay slot
	l.lwz   	r3,-60(r2)	 # SI load
	l.ori   	r4,r3,0	 # move reg to reg
	l.lwz   	r3,-24(r2)	 # SI load
	l.add   	r3,r3,r4 # addsi3
	l.lbz   	r3,0(r3)	 # zero_extendqisi2
	l.ori   	r4,r3,0	 # move reg to reg
	l.lwz   	r3,-32(r2)	 # SI load
	l.sfges 	r4,r3 # cmpsi_ge
	l.bf	.L836
	l.nop			# nop delay slot
	l.lwz   	r3,-56(r2)	 # SI load
	l.ori   	r4,r3,0	 # move reg to reg
	l.lwz   	r3,-24(r2)	 # SI load
	l.add   	r3,r3,r4 # addsi3
	l.lbz   	r3,0(r3)	 # zero_extendqisi2
	l.ori   	r4,r3,0	 # move reg to reg
	l.lwz   	r3,-32(r2)	 # SI load
	l.sfges 	r4,r3 # cmpsi_ge
	l.bf	.L837
	l.nop			# nop delay slot
	l.lwz   	r3,-52(r2)	 # SI load
	l.ori   	r4,r3,0	 # move reg to reg
	l.lwz   	r3,-24(r2)	 # SI load
	l.add   	r3,r3,r4 # addsi3
	l.lbz   	r3,0(r3)	 # zero_extendqisi2
	l.ori   	r4,r3,0	 # move reg to reg
	l.lwz   	r3,-32(r2)	 # SI load
	l.sfges 	r4,r3 # cmpsi_ge
	l.bf	.L838
	l.nop			# nop delay slot
	l.lwz   	r3,-48(r2)	 # SI load
	l.ori   	r4,r3,0	 # move reg to reg
	l.lwz   	r3,-24(r2)	 # SI load
	l.add   	r3,r3,r4 # addsi3
	l.lbz   	r3,0(r3)	 # zero_extendqisi2
	l.ori   	r4,r3,0	 # move reg to reg
	l.lwz   	r3,-32(r2)	 # SI load
	l.sfges 	r4,r3 # cmpsi_ge
	l.bf	.L839
	l.nop			# nop delay slot
	l.lwz   	r3,-44(r2)	 # SI load
	l.ori   	r4,r3,0	 # move reg to reg
	l.lwz   	r3,-24(r2)	 # SI load
	l.add   	r3,r3,r4 # addsi3
	l.lbz   	r3,0(r3)	 # zero_extendqisi2
	l.ori   	r4,r3,0	 # move reg to reg
	l.lwz   	r3,-32(r2)	 # SI load
	l.sfges 	r4,r3 # cmpsi_ge
	l.bf	.L840
	l.nop			# nop delay slot
	l.lwz   	r3,-72(r2)	 # SI load
	l.ori   	r4,r3,0	 # move reg to reg
	l.lwz   	r3,-24(r2)	 # SI load
	l.add   	r3,r3,r4 # addsi3
	l.lbz   	r3,0(r3)	 # zero_extendqisi2
	l.ori   	r4,r3,0	 # move reg to reg
	l.lwz   	r3,-32(r2)	 # SI load
	l.sflts 	r4,r3 # cmpsi_lt
	l.bf	.L13
	l.nop			# nop delay slot
	l.lwz   	r3,-36(r2)	 # SI load
	l.ori   	r4,r3,0	 # move reg to reg
	l.lwz   	r3,-24(r2)	 # SI load
	l.add   	r3,r3,r4 # addsi3
	l.lbz   	r3,0(r3)	 # zero_extendqisi2
	l.ori   	r4,r3,0	 # move reg to reg
	l.lwz   	r3,-32(r2)	 # SI load
	l.sflts 	r4,r3 # cmpsi_lt
	l.bf	.L13
	l.nop			# nop delay slot
	l.j     	.L14 # jump_internal
	l.nop			# nop delay slot
.L68:
	l.lwz   	r3,-72(r2)	 # SI load
	l.ori   	r4,r3,0	 # move reg to reg
	l.lwz   	r3,-24(r2)	 # SI load
	l.add   	r3,r3,r4 # addsi3
	l.lbz   	r3,0(r3)	 # zero_extendqisi2
	l.ori   	r4,r3,0	 # move reg to reg
	l.lwz   	r3,-32(r2)	 # SI load
	l.sfges 	r4,r3 # cmpsi_ge
	l.bf	.L841
	l.nop			# nop delay slot
	l.lwz   	r3,-68(r2)	 # SI load
	l.ori   	r4,r3,0	 # move reg to reg
	l.lwz   	r3,-24(r2)	 # SI load
	l.add   	r3,r3,r4 # addsi3
	l.lbz   	r3,0(r3)	 # zero_extendqisi2
	l.ori   	r4,r3,0	 # move reg to reg
	l.lwz   	r3,-32(r2)	 # SI load
	l.sfges 	r4,r3 # cmpsi_ge
	l.bf	.L842
	l.nop			# nop delay slot
	l.lwz   	r3,-64(r2)	 # SI load
	l.ori   	r4,r3,0	 # move reg to reg
	l.lwz   	r3,-24(r2)	 # SI load
	l.add   	r3,r3,r4 # addsi3
	l.lbz   	r3,0(r3)	 # zero_extendqisi2
	l.ori   	r4,r3,0	 # move reg to reg
	l.lwz   	r3,-32(r2)	 # SI load
	l.sfges 	r4,r3 # cmpsi_ge
	l.bf	.L843
	l.nop			# nop delay slot
	l.lwz   	r3,-60(r2)	 # SI load
	l.ori   	r4,r3,0	 # move reg to reg
	l.lwz   	r3,-24(r2)	 # SI load
	l.add   	r3,r3,r4 # addsi3
	l.lbz   	r3,0(r3)	 # zero_extendqisi2
	l.ori   	r4,r3,0	 # move reg to reg
	l.lwz   	r3,-32(r2)	 # SI load
	l.sfges 	r4,r3 # cmpsi_ge
	l.bf	.L844
	l.nop			# nop delay slot
	l.lwz   	r3,-56(r2)	 # SI load
	l.ori   	r4,r3,0	 # move reg to reg
	l.lwz   	r3,-24(r2)	 # SI load
	l.add   	r3,r3,r4 # addsi3
	l.lbz   	r3,0(r3)	 # zero_extendqisi2
	l.ori   	r4,r3,0	 # move reg to reg
	l.lwz   	r3,-32(r2)	 # SI load
	l.sfges 	r4,r3 # cmpsi_ge
	l.bf	.L845
	l.nop			# nop delay slot
	l.lwz   	r3,-52(r2)	 # SI load
	l.ori   	r4,r3,0	 # move reg to reg
	l.lwz   	r3,-24(r2)	 # SI load
	l.add   	r3,r3,r4 # addsi3
	l.lbz   	r3,0(r3)	 # zero_extendqisi2
	l.ori   	r4,r3,0	 # move reg to reg
	l.lwz   	r3,-32(r2)	 # SI load
	l.sfges 	r4,r3 # cmpsi_ge
	l.bf	.L846
	l.nop			# nop delay slot
	l.lwz   	r3,-48(r2)	 # SI load
	l.ori   	r4,r3,0	 # move reg to reg
	l.lwz   	r3,-24(r2)	 # SI load
	l.add   	r3,r3,r4 # addsi3
	l.lbz   	r3,0(r3)	 # zero_extendqisi2
	l.ori   	r4,r3,0	 # move reg to reg
	l.lwz   	r3,-32(r2)	 # SI load
	l.sfges 	r4,r3 # cmpsi_ge
	l.bf	.L847
	l.nop			# nop delay slot
	l.lwz   	r3,-44(r2)	 # SI load
	l.ori   	r4,r3,0	 # move reg to reg
	l.lwz   	r3,-24(r2)	 # SI load
	l.add   	r3,r3,r4 # addsi3
	l.lbz   	r3,0(r3)	 # zero_extendqisi2
	l.ori   	r4,r3,0	 # move reg to reg
	l.lwz   	r3,-32(r2)	 # SI load
	l.sflts 	r4,r3 # cmpsi_lt
	l.bf	.L13
	l.nop			# nop delay slot
	l.j     	.L14 # jump_internal
	l.nop			# nop delay slot
.L52:
	l.lwz   	r3,-48(r2)	 # SI load
	l.ori   	r4,r3,0	 # move reg to reg
	l.lwz   	r3,-24(r2)	 # SI load
	l.add   	r3,r3,r4 # addsi3
	l.lbz   	r3,0(r3)	 # zero_extendqisi2
	l.ori   	r4,r3,0	 # move reg to reg
	l.lwz   	r3,-28(r2)	 # SI load
	l.sfles 	r4,r3 # cmpsi_le
	l.bf	.L83
	l.nop			# nop delay slot
	l.lwz   	r3,-44(r2)	 # SI load
	l.ori   	r4,r3,0	 # move reg to reg
	l.lwz   	r3,-24(r2)	 # SI load
	l.add   	r3,r3,r4 # addsi3
	l.lbz   	r3,0(r3)	 # zero_extendqisi2
	l.ori   	r4,r3,0	 # move reg to reg
	l.lwz   	r3,-28(r2)	 # SI load
	l.sfles 	r4,r3 # cmpsi_le
	l.bf	.L848
	l.nop			# nop delay slot
	l.lwz   	r3,-40(r2)	 # SI load
	l.ori   	r4,r3,0	 # move reg to reg
	l.lwz   	r3,-24(r2)	 # SI load
	l.add   	r3,r3,r4 # addsi3
	l.lbz   	r3,0(r3)	 # zero_extendqisi2
	l.ori   	r4,r3,0	 # move reg to reg
	l.lwz   	r3,-28(r2)	 # SI load
	l.sfles 	r4,r3 # cmpsi_le
	l.bf	.L849
	l.nop			# nop delay slot
	l.lwz   	r3,-36(r2)	 # SI load
	l.ori   	r4,r3,0	 # move reg to reg
	l.lwz   	r3,-24(r2)	 # SI load
	l.add   	r3,r3,r4 # addsi3
	l.lbz   	r3,0(r3)	 # zero_extendqisi2
	l.ori   	r4,r3,0	 # move reg to reg
	l.lwz   	r3,-28(r2)	 # SI load
	l.sfgts 	r4,r3 # cmpsi_gt
	l.bf	.L13
	l.nop			# nop delay slot
	l.lwz   	r3,-72(r2)	 # SI load
	l.ori   	r4,r3,0	 # move reg to reg
	l.lwz   	r3,-24(r2)	 # SI load
	l.add   	r3,r3,r4 # addsi3
	l.lbz   	r3,0(r3)	 # zero_extendqisi2
	l.ori   	r4,r3,0	 # move reg to reg
	l.lwz   	r3,-28(r2)	 # SI load
	l.sfles 	r4,r3 # cmpsi_le
	l.bf	.L850
	l.nop			# nop delay slot
	l.lwz   	r3,-68(r2)	 # SI load
	l.ori   	r4,r3,0	 # move reg to reg
	l.lwz   	r3,-24(r2)	 # SI load
	l.add   	r3,r3,r4 # addsi3
	l.lbz   	r3,0(r3)	 # zero_extendqisi2
	l.ori   	r4,r3,0	 # move reg to reg
	l.lwz   	r3,-28(r2)	 # SI load
	l.sfles 	r4,r3 # cmpsi_le
	l.bf	.L851
	l.nop			# nop delay slot
	l.lwz   	r3,-64(r2)	 # SI load
	l.ori   	r4,r3,0	 # move reg to reg
	l.lwz   	r3,-24(r2)	 # SI load
	l.add   	r3,r3,r4 # addsi3
	l.lbz   	r3,0(r3)	 # zero_extendqisi2
	l.ori   	r4,r3,0	 # move reg to reg
	l.lwz   	r3,-28(r2)	 # SI load
	l.sfles 	r4,r3 # cmpsi_le
	l.bf	.L852
	l.nop			# nop delay slot
	l.lwz   	r3,-60(r2)	 # SI load
	l.ori   	r4,r3,0	 # move reg to reg
	l.lwz   	r3,-24(r2)	 # SI load
	l.add   	r3,r3,r4 # addsi3
	l.lbz   	r3,0(r3)	 # zero_extendqisi2
	l.ori   	r4,r3,0	 # move reg to reg
	l.lwz   	r3,-28(r2)	 # SI load
	l.sfles 	r4,r3 # cmpsi_le
	l.bf	.L853
	l.nop			# nop delay slot
	l.lwz   	r3,-56(r2)	 # SI load
	l.ori   	r4,r3,0	 # move reg to reg
	l.lwz   	r3,-24(r2)	 # SI load
	l.add   	r3,r3,r4 # addsi3
	l.lbz   	r3,0(r3)	 # zero_extendqisi2
	l.ori   	r4,r3,0	 # move reg to reg
	l.lwz   	r3,-28(r2)	 # SI load
	l.sfles 	r4,r3 # cmpsi_le
	l.bf	.L854
	l.nop			# nop delay slot
	l.lwz   	r3,-52(r2)	 # SI load
	l.ori   	r4,r3,0	 # move reg to reg
	l.lwz   	r3,-24(r2)	 # SI load
	l.add   	r3,r3,r4 # addsi3
	l.lbz   	r3,0(r3)	 # zero_extendqisi2
	l.ori   	r4,r3,0	 # move reg to reg
	l.lwz   	r3,-28(r2)	 # SI load
	l.sfgts 	r4,r3 # cmpsi_gt
	l.bf	.L13
	l.nop			# nop delay slot
	l.j     	.L14 # jump_internal
	l.nop			# nop delay slot
.L83:
	l.lwz   	r3,-48(r2)	 # SI load
	l.ori   	r4,r3,0	 # move reg to reg
	l.lwz   	r3,-24(r2)	 # SI load
	l.add   	r3,r3,r4 # addsi3
	l.lbz   	r3,0(r3)	 # zero_extendqisi2
	l.ori   	r4,r3,0	 # move reg to reg
	l.lwz   	r3,-32(r2)	 # SI load
	l.sfges 	r4,r3 # cmpsi_ge
	l.bf	.L855
	l.nop			# nop delay slot
	l.lwz   	r3,-68(r2)	 # SI load
	l.ori   	r4,r3,0	 # move reg to reg
	l.lwz   	r3,-24(r2)	 # SI load
	l.add   	r3,r3,r4 # addsi3
	l.lbz   	r3,0(r3)	 # zero_extendqisi2
	l.ori   	r4,r3,0	 # move reg to reg
	l.lwz   	r3,-32(r2)	 # SI load
	l.sfges 	r4,r3 # cmpsi_ge
	l.bf	.L856
	l.nop			# nop delay slot
	l.lwz   	r3,-64(r2)	 # SI load
	l.ori   	r4,r3,0	 # move reg to reg
	l.lwz   	r3,-24(r2)	 # SI load
	l.add   	r3,r3,r4 # addsi3
	l.lbz   	r3,0(r3)	 # zero_extendqisi2
	l.ori   	r4,r3,0	 # move reg to reg
	l.lwz   	r3,-32(r2)	 # SI load
	l.sfges 	r4,r3 # cmpsi_ge
	l.bf	.L857
	l.nop			# nop delay slot
	l.lwz   	r3,-60(r2)	 # SI load
	l.ori   	r4,r3,0	 # move reg to reg
	l.lwz   	r3,-24(r2)	 # SI load
	l.add   	r3,r3,r4 # addsi3
	l.lbz   	r3,0(r3)	 # zero_extendqisi2
	l.ori   	r4,r3,0	 # move reg to reg
	l.lwz   	r3,-32(r2)	 # SI load
	l.sfges 	r4,r3 # cmpsi_ge
	l.bf	.L858
	l.nop			# nop delay slot
	l.lwz   	r3,-56(r2)	 # SI load
	l.ori   	r4,r3,0	 # move reg to reg
	l.lwz   	r3,-24(r2)	 # SI load
	l.add   	r3,r3,r4 # addsi3
	l.lbz   	r3,0(r3)	 # zero_extendqisi2
	l.ori   	r4,r3,0	 # move reg to reg
	l.lwz   	r3,-32(r2)	 # SI load
	l.sfges 	r4,r3 # cmpsi_ge
	l.bf	.L859
	l.nop			# nop delay slot
	l.lwz   	r3,-52(r2)	 # SI load
	l.ori   	r4,r3,0	 # move reg to reg
	l.lwz   	r3,-24(r2)	 # SI load
	l.add   	r3,r3,r4 # addsi3
	l.lbz   	r3,0(r3)	 # zero_extendqisi2
	l.ori   	r4,r3,0	 # move reg to reg
	l.lwz   	r3,-32(r2)	 # SI load
	l.sfges 	r4,r3 # cmpsi_ge
	l.bf	.L860
	l.nop			# nop delay slot
	l.lwz   	r3,-44(r2)	 # SI load
	l.ori   	r4,r3,0	 # move reg to reg
	l.lwz   	r3,-24(r2)	 # SI load
	l.add   	r3,r3,r4 # addsi3
	l.lbz   	r3,0(r3)	 # zero_extendqisi2
	l.ori   	r4,r3,0	 # move reg to reg
	l.lwz   	r3,-32(r2)	 # SI load
	l.sfges 	r4,r3 # cmpsi_ge
	l.bf	.L861
	l.nop			# nop delay slot
	l.lwz   	r3,-40(r2)	 # SI load
	l.ori   	r4,r3,0	 # move reg to reg
	l.lwz   	r3,-24(r2)	 # SI load
	l.add   	r3,r3,r4 # addsi3
	l.lbz   	r3,0(r3)	 # zero_extendqisi2
	l.ori   	r4,r3,0	 # move reg to reg
	l.lwz   	r3,-32(r2)	 # SI load
	l.sfges 	r4,r3 # cmpsi_ge
	l.bf	.L862
	l.nop			# nop delay slot
	l.lwz   	r3,-72(r2)	 # SI load
	l.ori   	r4,r3,0	 # move reg to reg
	l.lwz   	r3,-24(r2)	 # SI load
	l.add   	r3,r3,r4 # addsi3
	l.lbz   	r3,0(r3)	 # zero_extendqisi2
	l.ori   	r4,r3,0	 # move reg to reg
	l.lwz   	r3,-32(r2)	 # SI load
	l.sflts 	r4,r3 # cmpsi_lt
	l.bf	.L13
	l.nop			# nop delay slot
	l.lwz   	r3,-36(r2)	 # SI load
	l.ori   	r4,r3,0	 # move reg to reg
	l.lwz   	r3,-24(r2)	 # SI load
	l.add   	r3,r3,r4 # addsi3
	l.lbz   	r3,0(r3)	 # zero_extendqisi2
	l.ori   	r4,r3,0	 # move reg to reg
	l.lwz   	r3,-32(r2)	 # SI load
	l.sflts 	r4,r3 # cmpsi_lt
	l.bf	.L13
	l.nop			# nop delay slot
	l.j     	.L14 # jump_internal
	l.nop			# nop delay slot
.L9:
	l.lwz   	r3,-80(r2)	 # SI load
	l.ori   	r4,r3,0	 # move reg to reg
	l.lwz   	r3,-24(r2)	 # SI load
	l.add   	r3,r3,r4 # addsi3
	l.lbz   	r3,0(r3)	 # zero_extendqisi2
	l.ori   	r4,r3,0	 # move reg to reg
	l.lwz   	r3,-32(r2)	 # SI load
	l.sfges 	r4,r3 # cmpsi_ge
	l.bf	.L99
	l.nop			# nop delay slot
	l.lwz   	r3,-44(r2)	 # SI load
	l.ori   	r4,r3,0	 # move reg to reg
	l.lwz   	r3,-24(r2)	 # SI load
	l.add   	r3,r3,r4 # addsi3
	l.lbz   	r3,0(r3)	 # zero_extendqisi2
	l.ori   	r4,r3,0	 # move reg to reg
	l.lwz   	r3,-28(r2)	 # SI load
	l.sfles 	r4,r3 # cmpsi_le
	l.bf	.L100
	l.nop			# nop delay slot
	l.lwz   	r3,-52(r2)	 # SI load
	l.ori   	r4,r3,0	 # move reg to reg
	l.lwz   	r3,-24(r2)	 # SI load
	l.add   	r3,r3,r4 # addsi3
	l.lbz   	r3,0(r3)	 # zero_extendqisi2
	l.ori   	r4,r3,0	 # move reg to reg
	l.lwz   	r3,-28(r2)	 # SI load
	l.sfles 	r4,r3 # cmpsi_le
	l.bf	.L101
	l.nop			# nop delay slot
	l.lwz   	r3,-48(r2)	 # SI load
	l.ori   	r4,r3,0	 # move reg to reg
	l.lwz   	r3,-24(r2)	 # SI load
	l.add   	r3,r3,r4 # addsi3
	l.lbz   	r3,0(r3)	 # zero_extendqisi2
	l.ori   	r4,r3,0	 # move reg to reg
	l.lwz   	r3,-28(r2)	 # SI load
	l.sfles 	r4,r3 # cmpsi_le
	l.bf	.L863
	l.nop			# nop delay slot
	l.lwz   	r3,-40(r2)	 # SI load
	l.ori   	r4,r3,0	 # move reg to reg
	l.lwz   	r3,-24(r2)	 # SI load
	l.add   	r3,r3,r4 # addsi3
	l.lbz   	r3,0(r3)	 # zero_extendqisi2
	l.ori   	r4,r3,0	 # move reg to reg
	l.lwz   	r3,-28(r2)	 # SI load
	l.sfles 	r4,r3 # cmpsi_le
	l.bf	.L103
	l.nop			# nop delay slot
	l.lwz   	r3,-36(r2)	 # SI load
	l.ori   	r4,r3,0	 # move reg to reg
	l.lwz   	r3,-24(r2)	 # SI load
	l.add   	r3,r3,r4 # addsi3
	l.lbz   	r3,0(r3)	 # zero_extendqisi2
	l.ori   	r4,r3,0	 # move reg to reg
	l.lwz   	r3,-28(r2)	 # SI load
	l.sfgts 	r4,r3 # cmpsi_gt
	l.bf	.L13
	l.nop			# nop delay slot
	l.lwz   	r3,-72(r2)	 # SI load
	l.ori   	r4,r3,0	 # move reg to reg
	l.lwz   	r3,-24(r2)	 # SI load
	l.add   	r3,r3,r4 # addsi3
	l.lbz   	r3,0(r3)	 # zero_extendqisi2
	l.ori   	r4,r3,0	 # move reg to reg
	l.lwz   	r3,-28(r2)	 # SI load
	l.sfles 	r4,r3 # cmpsi_le
	l.bf	.L864
	l.nop			# nop delay slot
	l.lwz   	r3,-68(r2)	 # SI load
	l.ori   	r4,r3,0	 # move reg to reg
	l.lwz   	r3,-24(r2)	 # SI load
	l.add   	r3,r3,r4 # addsi3
	l.lbz   	r3,0(r3)	 # zero_extendqisi2
	l.ori   	r4,r3,0	 # move reg to reg
	l.lwz   	r3,-28(r2)	 # SI load
	l.sfles 	r4,r3 # cmpsi_le
	l.bf	.L865
	l.nop			# nop delay slot
	l.lwz   	r3,-64(r2)	 # SI load
	l.ori   	r4,r3,0	 # move reg to reg
	l.lwz   	r3,-24(r2)	 # SI load
	l.add   	r3,r3,r4 # addsi3
	l.lbz   	r3,0(r3)	 # zero_extendqisi2
	l.ori   	r4,r3,0	 # move reg to reg
	l.lwz   	r3,-28(r2)	 # SI load
	l.sfles 	r4,r3 # cmpsi_le
	l.bf	.L866
	l.nop			# nop delay slot
	l.lwz   	r3,-60(r2)	 # SI load
	l.ori   	r4,r3,0	 # move reg to reg
	l.lwz   	r3,-24(r2)	 # SI load
	l.add   	r3,r3,r4 # addsi3
	l.lbz   	r3,0(r3)	 # zero_extendqisi2
	l.ori   	r4,r3,0	 # move reg to reg
	l.lwz   	r3,-28(r2)	 # SI load
	l.sfles 	r4,r3 # cmpsi_le
	l.bf	.L867
	l.nop			# nop delay slot
	l.lwz   	r3,-56(r2)	 # SI load
	l.ori   	r4,r3,0	 # move reg to reg
	l.lwz   	r3,-24(r2)	 # SI load
	l.add   	r3,r3,r4 # addsi3
	l.lbz   	r3,0(r3)	 # zero_extendqisi2
	l.ori   	r4,r3,0	 # move reg to reg
	l.lwz   	r3,-28(r2)	 # SI load
	l.sfgts 	r4,r3 # cmpsi_gt
	l.bf	.L13
	l.nop			# nop delay slot
	l.j     	.L14 # jump_internal
	l.nop			# nop delay slot
.L103:
	l.lwz   	r3,-76(r2)	 # SI load
	l.ori   	r4,r3,0	 # move reg to reg
	l.lwz   	r3,-24(r2)	 # SI load
	l.add   	r3,r3,r4 # addsi3
	l.lbz   	r3,0(r3)	 # zero_extendqisi2
	l.ori   	r4,r3,0	 # move reg to reg
	l.lwz   	r3,-28(r2)	 # SI load
	l.sfles 	r4,r3 # cmpsi_le
	l.bf	.L868
	l.nop			# nop delay slot
	l.lwz   	r3,-72(r2)	 # SI load
	l.ori   	r4,r3,0	 # move reg to reg
	l.lwz   	r3,-24(r2)	 # SI load
	l.add   	r3,r3,r4 # addsi3
	l.lbz   	r3,0(r3)	 # zero_extendqisi2
	l.ori   	r4,r3,0	 # move reg to reg
	l.lwz   	r3,-28(r2)	 # SI load
	l.sfles 	r4,r3 # cmpsi_le
	l.bf	.L869
	l.nop			# nop delay slot
	l.lwz   	r3,-68(r2)	 # SI load
	l.ori   	r4,r3,0	 # move reg to reg
	l.lwz   	r3,-24(r2)	 # SI load
	l.add   	r3,r3,r4 # addsi3
	l.lbz   	r3,0(r3)	 # zero_extendqisi2
	l.ori   	r4,r3,0	 # move reg to reg
	l.lwz   	r3,-28(r2)	 # SI load
	l.sfles 	r4,r3 # cmpsi_le
	l.bf	.L870
	l.nop			# nop delay slot
	l.lwz   	r3,-64(r2)	 # SI load
	l.ori   	r4,r3,0	 # move reg to reg
	l.lwz   	r3,-24(r2)	 # SI load
	l.add   	r3,r3,r4 # addsi3
	l.lbz   	r3,0(r3)	 # zero_extendqisi2
	l.ori   	r4,r3,0	 # move reg to reg
	l.lwz   	r3,-28(r2)	 # SI load
	l.sfles 	r4,r3 # cmpsi_le
	l.bf	.L871
	l.nop			# nop delay slot
	l.lwz   	r3,-60(r2)	 # SI load
	l.ori   	r4,r3,0	 # move reg to reg
	l.lwz   	r3,-24(r2)	 # SI load
	l.add   	r3,r3,r4 # addsi3
	l.lbz   	r3,0(r3)	 # zero_extendqisi2
	l.ori   	r4,r3,0	 # move reg to reg
	l.lwz   	r3,-28(r2)	 # SI load
	l.sfles 	r4,r3 # cmpsi_le
	l.bf	.L872
	l.nop			# nop delay slot
	l.lwz   	r3,-56(r2)	 # SI load
	l.ori   	r4,r3,0	 # move reg to reg
	l.lwz   	r3,-24(r2)	 # SI load
	l.add   	r3,r3,r4 # addsi3
	l.lbz   	r3,0(r3)	 # zero_extendqisi2
	l.ori   	r4,r3,0	 # move reg to reg
	l.lwz   	r3,-28(r2)	 # SI load
	l.sfgts 	r4,r3 # cmpsi_gt
	l.bf	.L13
	l.nop			# nop delay slot
	l.j     	.L14 # jump_internal
	l.nop			# nop delay slot
.L101:
	l.lwz   	r3,-52(r2)	 # SI load
	l.ori   	r4,r3,0	 # move reg to reg
	l.lwz   	r3,-24(r2)	 # SI load
	l.add   	r3,r3,r4 # addsi3
	l.lbz   	r3,0(r3)	 # zero_extendqisi2
	l.ori   	r4,r3,0	 # move reg to reg
	l.lwz   	r3,-32(r2)	 # SI load
	l.sfges 	r4,r3 # cmpsi_ge
	l.bf	.L873
	l.nop			# nop delay slot
	l.lwz   	r3,-76(r2)	 # SI load
	l.ori   	r4,r3,0	 # move reg to reg
	l.lwz   	r3,-24(r2)	 # SI load
	l.add   	r3,r3,r4 # addsi3
	l.lbz   	r3,0(r3)	 # zero_extendqisi2
	l.ori   	r4,r3,0	 # move reg to reg
	l.lwz   	r3,-32(r2)	 # SI load
	l.sfges 	r4,r3 # cmpsi_ge
	l.bf	.L874
	l.nop			# nop delay slot
	l.lwz   	r3,-72(r2)	 # SI load
	l.ori   	r4,r3,0	 # move reg to reg
	l.lwz   	r3,-24(r2)	 # SI load
	l.add   	r3,r3,r4 # addsi3
	l.lbz   	r3,0(r3)	 # zero_extendqisi2
	l.ori   	r4,r3,0	 # move reg to reg
	l.lwz   	r3,-32(r2)	 # SI load
	l.sfges 	r4,r3 # cmpsi_ge
	l.bf	.L875
	l.nop			# nop delay slot
	l.lwz   	r3,-68(r2)	 # SI load
	l.ori   	r4,r3,0	 # move reg to reg
	l.lwz   	r3,-24(r2)	 # SI load
	l.add   	r3,r3,r4 # addsi3
	l.lbz   	r3,0(r3)	 # zero_extendqisi2
	l.ori   	r4,r3,0	 # move reg to reg
	l.lwz   	r3,-32(r2)	 # SI load
	l.sfges 	r4,r3 # cmpsi_ge
	l.bf	.L876
	l.nop			# nop delay slot
	l.lwz   	r3,-64(r2)	 # SI load
	l.ori   	r4,r3,0	 # move reg to reg
	l.lwz   	r3,-24(r2)	 # SI load
	l.add   	r3,r3,r4 # addsi3
	l.lbz   	r3,0(r3)	 # zero_extendqisi2
	l.ori   	r4,r3,0	 # move reg to reg
	l.lwz   	r3,-32(r2)	 # SI load
	l.sfges 	r4,r3 # cmpsi_ge
	l.bf	.L877
	l.nop			# nop delay slot
	l.lwz   	r3,-60(r2)	 # SI load
	l.ori   	r4,r3,0	 # move reg to reg
	l.lwz   	r3,-24(r2)	 # SI load
	l.add   	r3,r3,r4 # addsi3
	l.lbz   	r3,0(r3)	 # zero_extendqisi2
	l.ori   	r4,r3,0	 # move reg to reg
	l.lwz   	r3,-32(r2)	 # SI load
	l.sfges 	r4,r3 # cmpsi_ge
	l.bf	.L878
	l.nop			# nop delay slot
	l.lwz   	r3,-56(r2)	 # SI load
	l.ori   	r4,r3,0	 # move reg to reg
	l.lwz   	r3,-24(r2)	 # SI load
	l.add   	r3,r3,r4 # addsi3
	l.lbz   	r3,0(r3)	 # zero_extendqisi2
	l.ori   	r4,r3,0	 # move reg to reg
	l.lwz   	r3,-32(r2)	 # SI load
	l.sfges 	r4,r3 # cmpsi_ge
	l.bf	.L879
	l.nop			# nop delay slot
	l.lwz   	r3,-48(r2)	 # SI load
	l.ori   	r4,r3,0	 # move reg to reg
	l.lwz   	r3,-24(r2)	 # SI load
	l.add   	r3,r3,r4 # addsi3
	l.lbz   	r3,0(r3)	 # zero_extendqisi2
	l.ori   	r4,r3,0	 # move reg to reg
	l.lwz   	r3,-32(r2)	 # SI load
	l.sflts 	r4,r3 # cmpsi_lt
	l.bf	.L13
	l.nop			# nop delay slot
	l.j     	.L14 # jump_internal
	l.nop			# nop delay slot
.L100:
	l.lwz   	r3,-44(r2)	 # SI load
	l.ori   	r4,r3,0	 # move reg to reg
	l.lwz   	r3,-24(r2)	 # SI load
	l.add   	r3,r3,r4 # addsi3
	l.lbz   	r3,0(r3)	 # zero_extendqisi2
	l.ori   	r4,r3,0	 # move reg to reg
	l.lwz   	r3,-32(r2)	 # SI load
	l.sfges 	r4,r3 # cmpsi_ge
	l.bf	.L120
	l.nop			# nop delay slot
	l.lwz   	r3,-68(r2)	 # SI load
	l.ori   	r4,r3,0	 # move reg to reg
	l.lwz   	r3,-24(r2)	 # SI load
	l.add   	r3,r3,r4 # addsi3
	l.lbz   	r3,0(r3)	 # zero_extendqisi2
	l.ori   	r4,r3,0	 # move reg to reg
	l.lwz   	r3,-32(r2)	 # SI load
	l.sfges 	r4,r3 # cmpsi_ge
	l.bf	.L880
	l.nop			# nop delay slot
	l.lwz   	r3,-64(r2)	 # SI load
	l.ori   	r4,r3,0	 # move reg to reg
	l.lwz   	r3,-24(r2)	 # SI load
	l.add   	r3,r3,r4 # addsi3
	l.lbz   	r3,0(r3)	 # zero_extendqisi2
	l.ori   	r4,r3,0	 # move reg to reg
	l.lwz   	r3,-32(r2)	 # SI load
	l.sfges 	r4,r3 # cmpsi_ge
	l.bf	.L881
	l.nop			# nop delay slot
	l.lwz   	r3,-60(r2)	 # SI load
	l.ori   	r4,r3,0	 # move reg to reg
	l.lwz   	r3,-24(r2)	 # SI load
	l.add   	r3,r3,r4 # addsi3
	l.lbz   	r3,0(r3)	 # zero_extendqisi2
	l.ori   	r4,r3,0	 # move reg to reg
	l.lwz   	r3,-32(r2)	 # SI load
	l.sfges 	r4,r3 # cmpsi_ge
	l.bf	.L882
	l.nop			# nop delay slot
	l.lwz   	r3,-56(r2)	 # SI load
	l.ori   	r4,r3,0	 # move reg to reg
	l.lwz   	r3,-24(r2)	 # SI load
	l.add   	r3,r3,r4 # addsi3
	l.lbz   	r3,0(r3)	 # zero_extendqisi2
	l.ori   	r4,r3,0	 # move reg to reg
	l.lwz   	r3,-32(r2)	 # SI load
	l.sfges 	r4,r3 # cmpsi_ge
	l.bf	.L883
	l.nop			# nop delay slot
	l.lwz   	r3,-52(r2)	 # SI load
	l.ori   	r4,r3,0	 # move reg to reg
	l.lwz   	r3,-24(r2)	 # SI load
	l.add   	r3,r3,r4 # addsi3
	l.lbz   	r3,0(r3)	 # zero_extendqisi2
	l.ori   	r4,r3,0	 # move reg to reg
	l.lwz   	r3,-32(r2)	 # SI load
	l.sfges 	r4,r3 # cmpsi_ge
	l.bf	.L884
	l.nop			# nop delay slot
	l.lwz   	r3,-48(r2)	 # SI load
	l.ori   	r4,r3,0	 # move reg to reg
	l.lwz   	r3,-24(r2)	 # SI load
	l.add   	r3,r3,r4 # addsi3
	l.lbz   	r3,0(r3)	 # zero_extendqisi2
	l.ori   	r4,r3,0	 # move reg to reg
	l.lwz   	r3,-32(r2)	 # SI load
	l.sfges 	r4,r3 # cmpsi_ge
	l.bf	.L885
	l.nop			# nop delay slot
	l.lwz   	r3,-72(r2)	 # SI load
	l.ori   	r4,r3,0	 # move reg to reg
	l.lwz   	r3,-24(r2)	 # SI load
	l.add   	r3,r3,r4 # addsi3
	l.lbz   	r3,0(r3)	 # zero_extendqisi2
	l.ori   	r4,r3,0	 # move reg to reg
	l.lwz   	r3,-32(r2)	 # SI load
	l.sfges 	r4,r3 # cmpsi_ge
	l.bf	.L127
	l.nop			# nop delay slot
	l.lwz   	r3,-76(r2)	 # SI load
	l.ori   	r4,r3,0	 # move reg to reg
	l.lwz   	r3,-24(r2)	 # SI load
	l.add   	r3,r3,r4 # addsi3
	l.lbz   	r3,0(r3)	 # zero_extendqisi2
	l.ori   	r4,r3,0	 # move reg to reg
	l.lwz   	r3,-32(r2)	 # SI load
	l.sflts 	r4,r3 # cmpsi_lt
	l.bf	.L13
	l.nop			# nop delay slot
	l.lwz   	r3,-40(r2)	 # SI load
	l.ori   	r4,r3,0	 # move reg to reg
	l.lwz   	r3,-24(r2)	 # SI load
	l.add   	r3,r3,r4 # addsi3
	l.lbz   	r3,0(r3)	 # zero_extendqisi2
	l.ori   	r4,r3,0	 # move reg to reg
	l.lwz   	r3,-32(r2)	 # SI load
	l.sflts 	r4,r3 # cmpsi_lt
	l.bf	.L13
	l.nop			# nop delay slot
	l.j     	.L14 # jump_internal
	l.nop			# nop delay slot
.L127:
	l.lwz   	r3,-40(r2)	 # SI load
	l.ori   	r4,r3,0	 # move reg to reg
	l.lwz   	r3,-24(r2)	 # SI load
	l.add   	r3,r3,r4 # addsi3
	l.lbz   	r3,0(r3)	 # zero_extendqisi2
	l.ori   	r4,r3,0	 # move reg to reg
	l.lwz   	r3,-32(r2)	 # SI load
	l.sfges 	r4,r3 # cmpsi_ge
	l.bf	.L886
	l.nop			# nop delay slot
	l.lwz   	r3,-36(r2)	 # SI load
	l.ori   	r4,r3,0	 # move reg to reg
	l.lwz   	r3,-24(r2)	 # SI load
	l.add   	r3,r3,r4 # addsi3
	l.lbz   	r3,0(r3)	 # zero_extendqisi2
	l.ori   	r4,r3,0	 # move reg to reg
	l.lwz   	r3,-32(r2)	 # SI load
	l.sflts 	r4,r3 # cmpsi_lt
	l.bf	.L13
	l.nop			# nop delay slot
	l.j     	.L14 # jump_internal
	l.nop			# nop delay slot
.L120:
	l.lwz   	r3,-76(r2)	 # SI load
	l.ori   	r4,r3,0	 # move reg to reg
	l.lwz   	r3,-24(r2)	 # SI load
	l.add   	r3,r3,r4 # addsi3
	l.lbz   	r3,0(r3)	 # zero_extendqisi2
	l.ori   	r4,r3,0	 # move reg to reg
	l.lwz   	r3,-32(r2)	 # SI load
	l.sfges 	r4,r3 # cmpsi_ge
	l.bf	.L887
	l.nop			# nop delay slot
	l.lwz   	r3,-72(r2)	 # SI load
	l.ori   	r4,r3,0	 # move reg to reg
	l.lwz   	r3,-24(r2)	 # SI load
	l.add   	r3,r3,r4 # addsi3
	l.lbz   	r3,0(r3)	 # zero_extendqisi2
	l.ori   	r4,r3,0	 # move reg to reg
	l.lwz   	r3,-32(r2)	 # SI load
	l.sfges 	r4,r3 # cmpsi_ge
	l.bf	.L888
	l.nop			# nop delay slot
	l.lwz   	r3,-68(r2)	 # SI load
	l.ori   	r4,r3,0	 # move reg to reg
	l.lwz   	r3,-24(r2)	 # SI load
	l.add   	r3,r3,r4 # addsi3
	l.lbz   	r3,0(r3)	 # zero_extendqisi2
	l.ori   	r4,r3,0	 # move reg to reg
	l.lwz   	r3,-32(r2)	 # SI load
	l.sfges 	r4,r3 # cmpsi_ge
	l.bf	.L889
	l.nop			# nop delay slot
	l.lwz   	r3,-64(r2)	 # SI load
	l.ori   	r4,r3,0	 # move reg to reg
	l.lwz   	r3,-24(r2)	 # SI load
	l.add   	r3,r3,r4 # addsi3
	l.lbz   	r3,0(r3)	 # zero_extendqisi2
	l.ori   	r4,r3,0	 # move reg to reg
	l.lwz   	r3,-32(r2)	 # SI load
	l.sfges 	r4,r3 # cmpsi_ge
	l.bf	.L890
	l.nop			# nop delay slot
	l.lwz   	r3,-60(r2)	 # SI load
	l.ori   	r4,r3,0	 # move reg to reg
	l.lwz   	r3,-24(r2)	 # SI load
	l.add   	r3,r3,r4 # addsi3
	l.lbz   	r3,0(r3)	 # zero_extendqisi2
	l.ori   	r4,r3,0	 # move reg to reg
	l.lwz   	r3,-32(r2)	 # SI load
	l.sfges 	r4,r3 # cmpsi_ge
	l.bf	.L891
	l.nop			# nop delay slot
	l.lwz   	r3,-56(r2)	 # SI load
	l.ori   	r4,r3,0	 # move reg to reg
	l.lwz   	r3,-24(r2)	 # SI load
	l.add   	r3,r3,r4 # addsi3
	l.lbz   	r3,0(r3)	 # zero_extendqisi2
	l.ori   	r4,r3,0	 # move reg to reg
	l.lwz   	r3,-32(r2)	 # SI load
	l.sfges 	r4,r3 # cmpsi_ge
	l.bf	.L892
	l.nop			# nop delay slot
	l.lwz   	r3,-52(r2)	 # SI load
	l.ori   	r4,r3,0	 # move reg to reg
	l.lwz   	r3,-24(r2)	 # SI load
	l.add   	r3,r3,r4 # addsi3
	l.lbz   	r3,0(r3)	 # zero_extendqisi2
	l.ori   	r4,r3,0	 # move reg to reg
	l.lwz   	r3,-32(r2)	 # SI load
	l.sfges 	r4,r3 # cmpsi_ge
	l.bf	.L893
	l.nop			# nop delay slot
	l.lwz   	r3,-48(r2)	 # SI load
	l.ori   	r4,r3,0	 # move reg to reg
	l.lwz   	r3,-24(r2)	 # SI load
	l.add   	r3,r3,r4 # addsi3
	l.lbz   	r3,0(r3)	 # zero_extendqisi2
	l.ori   	r4,r3,0	 # move reg to reg
	l.lwz   	r3,-32(r2)	 # SI load
	l.sflts 	r4,r3 # cmpsi_lt
	l.bf	.L13
	l.nop			# nop delay slot
	l.j     	.L14 # jump_internal
	l.nop			# nop delay slot
.L99:
	l.lwz   	r3,-52(r2)	 # SI load
	l.ori   	r4,r3,0	 # move reg to reg
	l.lwz   	r3,-24(r2)	 # SI load
	l.add   	r3,r3,r4 # addsi3
	l.lbz   	r3,0(r3)	 # zero_extendqisi2
	l.ori   	r4,r3,0	 # move reg to reg
	l.lwz   	r3,-28(r2)	 # SI load
	l.sfles 	r4,r3 # cmpsi_le
	l.bf	.L136
	l.nop			# nop delay slot
	l.lwz   	r3,-48(r2)	 # SI load
	l.ori   	r4,r3,0	 # move reg to reg
	l.lwz   	r3,-24(r2)	 # SI load
	l.add   	r3,r3,r4 # addsi3
	l.lbz   	r3,0(r3)	 # zero_extendqisi2
	l.ori   	r4,r3,0	 # move reg to reg
	l.lwz   	r3,-28(r2)	 # SI load
	l.sfles 	r4,r3 # cmpsi_le
	l.bf	.L894
	l.nop			# nop delay slot
	l.lwz   	r3,-44(r2)	 # SI load
	l.ori   	r4,r3,0	 # move reg to reg
	l.lwz   	r3,-24(r2)	 # SI load
	l.add   	r3,r3,r4 # addsi3
	l.lbz   	r3,0(r3)	 # zero_extendqisi2
	l.ori   	r4,r3,0	 # move reg to reg
	l.lwz   	r3,-28(r2)	 # SI load
	l.sfles 	r4,r3 # cmpsi_le
	l.bf	.L895
	l.nop			# nop delay slot
	l.lwz   	r3,-40(r2)	 # SI load
	l.ori   	r4,r3,0	 # move reg to reg
	l.lwz   	r3,-24(r2)	 # SI load
	l.add   	r3,r3,r4 # addsi3
	l.lbz   	r3,0(r3)	 # zero_extendqisi2
	l.ori   	r4,r3,0	 # move reg to reg
	l.lwz   	r3,-28(r2)	 # SI load
	l.sfles 	r4,r3 # cmpsi_le
	l.bf	.L139
	l.nop			# nop delay slot
	l.lwz   	r3,-36(r2)	 # SI load
	l.ori   	r4,r3,0	 # move reg to reg
	l.lwz   	r3,-24(r2)	 # SI load
	l.add   	r3,r3,r4 # addsi3
	l.lbz   	r3,0(r3)	 # zero_extendqisi2
	l.ori   	r4,r3,0	 # move reg to reg
	l.lwz   	r3,-28(r2)	 # SI load
	l.sfgts 	r4,r3 # cmpsi_gt
	l.bf	.L13
	l.nop			# nop delay slot
	l.lwz   	r3,-72(r2)	 # SI load
	l.ori   	r4,r3,0	 # move reg to reg
	l.lwz   	r3,-24(r2)	 # SI load
	l.add   	r3,r3,r4 # addsi3
	l.lbz   	r3,0(r3)	 # zero_extendqisi2
	l.ori   	r4,r3,0	 # move reg to reg
	l.lwz   	r3,-28(r2)	 # SI load
	l.sfles 	r4,r3 # cmpsi_le
	l.bf	.L896
	l.nop			# nop delay slot
	l.lwz   	r3,-68(r2)	 # SI load
	l.ori   	r4,r3,0	 # move reg to reg
	l.lwz   	r3,-24(r2)	 # SI load
	l.add   	r3,r3,r4 # addsi3
	l.lbz   	r3,0(r3)	 # zero_extendqisi2
	l.ori   	r4,r3,0	 # move reg to reg
	l.lwz   	r3,-28(r2)	 # SI load
	l.sfles 	r4,r3 # cmpsi_le
	l.bf	.L897
	l.nop			# nop delay slot
	l.lwz   	r3,-64(r2)	 # SI load
	l.ori   	r4,r3,0	 # move reg to reg
	l.lwz   	r3,-24(r2)	 # SI load
	l.add   	r3,r3,r4 # addsi3
	l.lbz   	r3,0(r3)	 # zero_extendqisi2
	l.ori   	r4,r3,0	 # move reg to reg
	l.lwz   	r3,-28(r2)	 # SI load
	l.sfles 	r4,r3 # cmpsi_le
	l.bf	.L898
	l.nop			# nop delay slot
	l.lwz   	r3,-60(r2)	 # SI load
	l.ori   	r4,r3,0	 # move reg to reg
	l.lwz   	r3,-24(r2)	 # SI load
	l.add   	r3,r3,r4 # addsi3
	l.lbz   	r3,0(r3)	 # zero_extendqisi2
	l.ori   	r4,r3,0	 # move reg to reg
	l.lwz   	r3,-28(r2)	 # SI load
	l.sfles 	r4,r3 # cmpsi_le
	l.bf	.L899
	l.nop			# nop delay slot
	l.lwz   	r3,-56(r2)	 # SI load
	l.ori   	r4,r3,0	 # move reg to reg
	l.lwz   	r3,-24(r2)	 # SI load
	l.add   	r3,r3,r4 # addsi3
	l.lbz   	r3,0(r3)	 # zero_extendqisi2
	l.ori   	r4,r3,0	 # move reg to reg
	l.lwz   	r3,-28(r2)	 # SI load
	l.sfgts 	r4,r3 # cmpsi_gt
	l.bf	.L13
	l.nop			# nop delay slot
	l.j     	.L14 # jump_internal
	l.nop			# nop delay slot
.L139:
	l.lwz   	r3,-76(r2)	 # SI load
	l.ori   	r4,r3,0	 # move reg to reg
	l.lwz   	r3,-24(r2)	 # SI load
	l.add   	r3,r3,r4 # addsi3
	l.lbz   	r3,0(r3)	 # zero_extendqisi2
	l.ori   	r4,r3,0	 # move reg to reg
	l.lwz   	r3,-28(r2)	 # SI load
	l.sfles 	r4,r3 # cmpsi_le
	l.bf	.L900
	l.nop			# nop delay slot
	l.lwz   	r3,-72(r2)	 # SI load
	l.ori   	r4,r3,0	 # move reg to reg
	l.lwz   	r3,-24(r2)	 # SI load
	l.add   	r3,r3,r4 # addsi3
	l.lbz   	r3,0(r3)	 # zero_extendqisi2
	l.ori   	r4,r3,0	 # move reg to reg
	l.lwz   	r3,-28(r2)	 # SI load
	l.sfles 	r4,r3 # cmpsi_le
	l.bf	.L901
	l.nop			# nop delay slot
	l.lwz   	r3,-68(r2)	 # SI load
	l.ori   	r4,r3,0	 # move reg to reg
	l.lwz   	r3,-24(r2)	 # SI load
	l.add   	r3,r3,r4 # addsi3
	l.lbz   	r3,0(r3)	 # zero_extendqisi2
	l.ori   	r4,r3,0	 # move reg to reg
	l.lwz   	r3,-28(r2)	 # SI load
	l.sfles 	r4,r3 # cmpsi_le
	l.bf	.L902
	l.nop			# nop delay slot
	l.lwz   	r3,-64(r2)	 # SI load
	l.ori   	r4,r3,0	 # move reg to reg
	l.lwz   	r3,-24(r2)	 # SI load
	l.add   	r3,r3,r4 # addsi3
	l.lbz   	r3,0(r3)	 # zero_extendqisi2
	l.ori   	r4,r3,0	 # move reg to reg
	l.lwz   	r3,-28(r2)	 # SI load
	l.sfles 	r4,r3 # cmpsi_le
	l.bf	.L903
	l.nop			# nop delay slot
	l.lwz   	r3,-60(r2)	 # SI load
	l.ori   	r4,r3,0	 # move reg to reg
	l.lwz   	r3,-24(r2)	 # SI load
	l.add   	r3,r3,r4 # addsi3
	l.lbz   	r3,0(r3)	 # zero_extendqisi2
	l.ori   	r4,r3,0	 # move reg to reg
	l.lwz   	r3,-28(r2)	 # SI load
	l.sfles 	r4,r3 # cmpsi_le
	l.bf	.L904
	l.nop			# nop delay slot
	l.lwz   	r3,-56(r2)	 # SI load
	l.ori   	r4,r3,0	 # move reg to reg
	l.lwz   	r3,-24(r2)	 # SI load
	l.add   	r3,r3,r4 # addsi3
	l.lbz   	r3,0(r3)	 # zero_extendqisi2
	l.ori   	r4,r3,0	 # move reg to reg
	l.lwz   	r3,-28(r2)	 # SI load
	l.sfgts 	r4,r3 # cmpsi_gt
	l.bf	.L13
	l.nop			# nop delay slot
	l.j     	.L14 # jump_internal
	l.nop			# nop delay slot
.L136:
	l.lwz   	r3,-52(r2)	 # SI load
	l.ori   	r4,r3,0	 # move reg to reg
	l.lwz   	r3,-24(r2)	 # SI load
	l.add   	r3,r3,r4 # addsi3
	l.lbz   	r3,0(r3)	 # zero_extendqisi2
	l.ori   	r4,r3,0	 # move reg to reg
	l.lwz   	r3,-32(r2)	 # SI load
	l.sfges 	r4,r3 # cmpsi_ge
	l.bf	.L905
	l.nop			# nop delay slot
	l.lwz   	r3,-68(r2)	 # SI load
	l.ori   	r4,r3,0	 # move reg to reg
	l.lwz   	r3,-24(r2)	 # SI load
	l.add   	r3,r3,r4 # addsi3
	l.lbz   	r3,0(r3)	 # zero_extendqisi2
	l.ori   	r4,r3,0	 # move reg to reg
	l.lwz   	r3,-32(r2)	 # SI load
	l.sfges 	r4,r3 # cmpsi_ge
	l.bf	.L906
	l.nop			# nop delay slot
	l.lwz   	r3,-64(r2)	 # SI load
	l.ori   	r4,r3,0	 # move reg to reg
	l.lwz   	r3,-24(r2)	 # SI load
	l.add   	r3,r3,r4 # addsi3
	l.lbz   	r3,0(r3)	 # zero_extendqisi2
	l.ori   	r4,r3,0	 # move reg to reg
	l.lwz   	r3,-32(r2)	 # SI load
	l.sfges 	r4,r3 # cmpsi_ge
	l.bf	.L907
	l.nop			# nop delay slot
	l.lwz   	r3,-60(r2)	 # SI load
	l.ori   	r4,r3,0	 # move reg to reg
	l.lwz   	r3,-24(r2)	 # SI load
	l.add   	r3,r3,r4 # addsi3
	l.lbz   	r3,0(r3)	 # zero_extendqisi2
	l.ori   	r4,r3,0	 # move reg to reg
	l.lwz   	r3,-32(r2)	 # SI load
	l.sfges 	r4,r3 # cmpsi_ge
	l.bf	.L908
	l.nop			# nop delay slot
	l.lwz   	r3,-56(r2)	 # SI load
	l.ori   	r4,r3,0	 # move reg to reg
	l.lwz   	r3,-24(r2)	 # SI load
	l.add   	r3,r3,r4 # addsi3
	l.lbz   	r3,0(r3)	 # zero_extendqisi2
	l.ori   	r4,r3,0	 # move reg to reg
	l.lwz   	r3,-32(r2)	 # SI load
	l.sfges 	r4,r3 # cmpsi_ge
	l.bf	.L909
	l.nop			# nop delay slot
	l.lwz   	r3,-48(r2)	 # SI load
	l.ori   	r4,r3,0	 # move reg to reg
	l.lwz   	r3,-24(r2)	 # SI load
	l.add   	r3,r3,r4 # addsi3
	l.lbz   	r3,0(r3)	 # zero_extendqisi2
	l.ori   	r4,r3,0	 # move reg to reg
	l.lwz   	r3,-32(r2)	 # SI load
	l.sfges 	r4,r3 # cmpsi_ge
	l.bf	.L910
	l.nop			# nop delay slot
	l.lwz   	r3,-44(r2)	 # SI load
	l.ori   	r4,r3,0	 # move reg to reg
	l.lwz   	r3,-24(r2)	 # SI load
	l.add   	r3,r3,r4 # addsi3
	l.lbz   	r3,0(r3)	 # zero_extendqisi2
	l.ori   	r4,r3,0	 # move reg to reg
	l.lwz   	r3,-32(r2)	 # SI load
	l.sfges 	r4,r3 # cmpsi_ge
	l.bf	.L911
	l.nop			# nop delay slot
	l.lwz   	r3,-72(r2)	 # SI load
	l.ori   	r4,r3,0	 # move reg to reg
	l.lwz   	r3,-24(r2)	 # SI load
	l.add   	r3,r3,r4 # addsi3
	l.lbz   	r3,0(r3)	 # zero_extendqisi2
	l.ori   	r4,r3,0	 # move reg to reg
	l.lwz   	r3,-32(r2)	 # SI load
	l.sfges 	r4,r3 # cmpsi_ge
	l.bf	.L156
	l.nop			# nop delay slot
	l.lwz   	r3,-76(r2)	 # SI load
	l.ori   	r4,r3,0	 # move reg to reg
	l.lwz   	r3,-24(r2)	 # SI load
	l.add   	r3,r3,r4 # addsi3
	l.lbz   	r3,0(r3)	 # zero_extendqisi2
	l.ori   	r4,r3,0	 # move reg to reg
	l.lwz   	r3,-32(r2)	 # SI load
	l.sflts 	r4,r3 # cmpsi_lt
	l.bf	.L13
	l.nop			# nop delay slot
	l.lwz   	r3,-40(r2)	 # SI load
	l.ori   	r4,r3,0	 # move reg to reg
	l.lwz   	r3,-24(r2)	 # SI load
	l.add   	r3,r3,r4 # addsi3
	l.lbz   	r3,0(r3)	 # zero_extendqisi2
	l.ori   	r4,r3,0	 # move reg to reg
	l.lwz   	r3,-32(r2)	 # SI load
	l.sflts 	r4,r3 # cmpsi_lt
	l.bf	.L13
	l.nop			# nop delay slot
	l.j     	.L14 # jump_internal
	l.nop			# nop delay slot
.L156:
	l.lwz   	r3,-40(r2)	 # SI load
	l.ori   	r4,r3,0	 # move reg to reg
	l.lwz   	r3,-24(r2)	 # SI load
	l.add   	r3,r3,r4 # addsi3
	l.lbz   	r3,0(r3)	 # zero_extendqisi2
	l.ori   	r4,r3,0	 # move reg to reg
	l.lwz   	r3,-32(r2)	 # SI load
	l.sfges 	r4,r3 # cmpsi_ge
	l.bf	.L912
	l.nop			# nop delay slot
	l.lwz   	r3,-36(r2)	 # SI load
	l.ori   	r4,r3,0	 # move reg to reg
	l.lwz   	r3,-24(r2)	 # SI load
	l.add   	r3,r3,r4 # addsi3
	l.lbz   	r3,0(r3)	 # zero_extendqisi2
	l.ori   	r4,r3,0	 # move reg to reg
	l.lwz   	r3,-32(r2)	 # SI load
	l.sflts 	r4,r3 # cmpsi_lt
	l.bf	.L13
	l.nop			# nop delay slot
	l.j     	.L14 # jump_internal
	l.nop			# nop delay slot
.L8:
	l.lwz   	r3,-84(r2)	 # SI load
	l.ori   	r4,r3,0	 # move reg to reg
	l.lwz   	r3,-24(r2)	 # SI load
	l.add   	r3,r3,r4 # addsi3
	l.lbz   	r3,0(r3)	 # zero_extendqisi2
	l.ori   	r4,r3,0	 # move reg to reg
	l.lwz   	r3,-32(r2)	 # SI load
	l.sfges 	r4,r3 # cmpsi_ge
	l.bf	.L158
	l.nop			# nop delay slot
	l.lwz   	r3,-56(r2)	 # SI load
	l.ori   	r4,r3,0	 # move reg to reg
	l.lwz   	r3,-24(r2)	 # SI load
	l.add   	r3,r3,r4 # addsi3
	l.lbz   	r3,0(r3)	 # zero_extendqisi2
	l.ori   	r4,r3,0	 # move reg to reg
	l.lwz   	r3,-28(r2)	 # SI load
	l.sfles 	r4,r3 # cmpsi_le
	l.bf	.L159
	l.nop			# nop delay slot
	l.lwz   	r3,-52(r2)	 # SI load
	l.ori   	r4,r3,0	 # move reg to reg
	l.lwz   	r3,-24(r2)	 # SI load
	l.add   	r3,r3,r4 # addsi3
	l.lbz   	r3,0(r3)	 # zero_extendqisi2
	l.ori   	r4,r3,0	 # move reg to reg
	l.lwz   	r3,-28(r2)	 # SI load
	l.sfles 	r4,r3 # cmpsi_le
	l.bf	.L913
	l.nop			# nop delay slot
	l.lwz   	r3,-48(r2)	 # SI load
	l.ori   	r4,r3,0	 # move reg to reg
	l.lwz   	r3,-24(r2)	 # SI load
	l.add   	r3,r3,r4 # addsi3
	l.lbz   	r3,0(r3)	 # zero_extendqisi2
	l.ori   	r4,r3,0	 # move reg to reg
	l.lwz   	r3,-28(r2)	 # SI load
	l.sfles 	r4,r3 # cmpsi_le
	l.bf	.L914
	l.nop			# nop delay slot
	l.lwz   	r3,-44(r2)	 # SI load
	l.ori   	r4,r3,0	 # move reg to reg
	l.lwz   	r3,-24(r2)	 # SI load
	l.add   	r3,r3,r4 # addsi3
	l.lbz   	r3,0(r3)	 # zero_extendqisi2
	l.ori   	r4,r3,0	 # move reg to reg
	l.lwz   	r3,-28(r2)	 # SI load
	l.sfles 	r4,r3 # cmpsi_le
	l.bf	.L162
	l.nop			# nop delay slot
	l.lwz   	r3,-40(r2)	 # SI load
	l.ori   	r4,r3,0	 # move reg to reg
	l.lwz   	r3,-24(r2)	 # SI load
	l.add   	r3,r3,r4 # addsi3
	l.lbz   	r3,0(r3)	 # zero_extendqisi2
	l.ori   	r4,r3,0	 # move reg to reg
	l.lwz   	r3,-28(r2)	 # SI load
	l.sfles 	r4,r3 # cmpsi_le
	l.bf	.L163
	l.nop			# nop delay slot
	l.lwz   	r3,-36(r2)	 # SI load
	l.ori   	r4,r3,0	 # move reg to reg
	l.lwz   	r3,-24(r2)	 # SI load
	l.add   	r3,r3,r4 # addsi3
	l.lbz   	r3,0(r3)	 # zero_extendqisi2
	l.ori   	r4,r3,0	 # move reg to reg
	l.lwz   	r3,-28(r2)	 # SI load
	l.sfgts 	r4,r3 # cmpsi_gt
	l.bf	.L13
	l.nop			# nop delay slot
	l.lwz   	r3,-72(r2)	 # SI load
	l.ori   	r4,r3,0	 # move reg to reg
	l.lwz   	r3,-24(r2)	 # SI load
	l.add   	r3,r3,r4 # addsi3
	l.lbz   	r3,0(r3)	 # zero_extendqisi2
	l.ori   	r4,r3,0	 # move reg to reg
	l.lwz   	r3,-28(r2)	 # SI load
	l.sfles 	r4,r3 # cmpsi_le
	l.bf	.L915
	l.nop			# nop delay slot
	l.lwz   	r3,-68(r2)	 # SI load
	l.ori   	r4,r3,0	 # move reg to reg
	l.lwz   	r3,-24(r2)	 # SI load
	l.add   	r3,r3,r4 # addsi3
	l.lbz   	r3,0(r3)	 # zero_extendqisi2
	l.ori   	r4,r3,0	 # move reg to reg
	l.lwz   	r3,-28(r2)	 # SI load
	l.sfles 	r4,r3 # cmpsi_le
	l.bf	.L916
	l.nop			# nop delay slot
	l.lwz   	r3,-64(r2)	 # SI load
	l.ori   	r4,r3,0	 # move reg to reg
	l.lwz   	r3,-24(r2)	 # SI load
	l.add   	r3,r3,r4 # addsi3
	l.lbz   	r3,0(r3)	 # zero_extendqisi2
	l.ori   	r4,r3,0	 # move reg to reg
	l.lwz   	r3,-28(r2)	 # SI load
	l.sfles 	r4,r3 # cmpsi_le
	l.bf	.L917
	l.nop			# nop delay slot
	l.lwz   	r3,-60(r2)	 # SI load
	l.ori   	r4,r3,0	 # move reg to reg
	l.lwz   	r3,-24(r2)	 # SI load
	l.add   	r3,r3,r4 # addsi3
	l.lbz   	r3,0(r3)	 # zero_extendqisi2
	l.ori   	r4,r3,0	 # move reg to reg
	l.lwz   	r3,-28(r2)	 # SI load
	l.sfgts 	r4,r3 # cmpsi_gt
	l.bf	.L13
	l.nop			# nop delay slot
	l.j     	.L14 # jump_internal
	l.nop			# nop delay slot
.L163:
	l.lwz   	r3,-76(r2)	 # SI load
	l.ori   	r4,r3,0	 # move reg to reg
	l.lwz   	r3,-24(r2)	 # SI load
	l.add   	r3,r3,r4 # addsi3
	l.lbz   	r3,0(r3)	 # zero_extendqisi2
	l.ori   	r4,r3,0	 # move reg to reg
	l.lwz   	r3,-28(r2)	 # SI load
	l.sfles 	r4,r3 # cmpsi_le
	l.bf	.L918
	l.nop			# nop delay slot
	l.lwz   	r3,-72(r2)	 # SI load
	l.ori   	r4,r3,0	 # move reg to reg
	l.lwz   	r3,-24(r2)	 # SI load
	l.add   	r3,r3,r4 # addsi3
	l.lbz   	r3,0(r3)	 # zero_extendqisi2
	l.ori   	r4,r3,0	 # move reg to reg
	l.lwz   	r3,-28(r2)	 # SI load
	l.sfles 	r4,r3 # cmpsi_le
	l.bf	.L919
	l.nop			# nop delay slot
	l.lwz   	r3,-68(r2)	 # SI load
	l.ori   	r4,r3,0	 # move reg to reg
	l.lwz   	r3,-24(r2)	 # SI load
	l.add   	r3,r3,r4 # addsi3
	l.lbz   	r3,0(r3)	 # zero_extendqisi2
	l.ori   	r4,r3,0	 # move reg to reg
	l.lwz   	r3,-28(r2)	 # SI load
	l.sfles 	r4,r3 # cmpsi_le
	l.bf	.L920
	l.nop			# nop delay slot
	l.lwz   	r3,-64(r2)	 # SI load
	l.ori   	r4,r3,0	 # move reg to reg
	l.lwz   	r3,-24(r2)	 # SI load
	l.add   	r3,r3,r4 # addsi3
	l.lbz   	r3,0(r3)	 # zero_extendqisi2
	l.ori   	r4,r3,0	 # move reg to reg
	l.lwz   	r3,-28(r2)	 # SI load
	l.sfles 	r4,r3 # cmpsi_le
	l.bf	.L921
	l.nop			# nop delay slot
	l.lwz   	r3,-60(r2)	 # SI load
	l.ori   	r4,r3,0	 # move reg to reg
	l.lwz   	r3,-24(r2)	 # SI load
	l.add   	r3,r3,r4 # addsi3
	l.lbz   	r3,0(r3)	 # zero_extendqisi2
	l.ori   	r4,r3,0	 # move reg to reg
	l.lwz   	r3,-28(r2)	 # SI load
	l.sfgts 	r4,r3 # cmpsi_gt
	l.bf	.L13
	l.nop			# nop delay slot
	l.j     	.L14 # jump_internal
	l.nop			# nop delay slot
.L162:
	l.lwz   	r3,-80(r2)	 # SI load
	l.ori   	r4,r3,0	 # move reg to reg
	l.lwz   	r3,-24(r2)	 # SI load
	l.add   	r3,r3,r4 # addsi3
	l.lbz   	r3,0(r3)	 # zero_extendqisi2
	l.ori   	r4,r3,0	 # move reg to reg
	l.lwz   	r3,-28(r2)	 # SI load
	l.sfles 	r4,r3 # cmpsi_le
	l.bf	.L922
	l.nop			# nop delay slot
	l.lwz   	r3,-76(r2)	 # SI load
	l.ori   	r4,r3,0	 # move reg to reg
	l.lwz   	r3,-24(r2)	 # SI load
	l.add   	r3,r3,r4 # addsi3
	l.lbz   	r3,0(r3)	 # zero_extendqisi2
	l.ori   	r4,r3,0	 # move reg to reg
	l.lwz   	r3,-28(r2)	 # SI load
	l.sfles 	r4,r3 # cmpsi_le
	l.bf	.L923
	l.nop			# nop delay slot
	l.lwz   	r3,-72(r2)	 # SI load
	l.ori   	r4,r3,0	 # move reg to reg
	l.lwz   	r3,-24(r2)	 # SI load
	l.add   	r3,r3,r4 # addsi3
	l.lbz   	r3,0(r3)	 # zero_extendqisi2
	l.ori   	r4,r3,0	 # move reg to reg
	l.lwz   	r3,-28(r2)	 # SI load
	l.sfles 	r4,r3 # cmpsi_le
	l.bf	.L924
	l.nop			# nop delay slot
	l.lwz   	r3,-68(r2)	 # SI load
	l.ori   	r4,r3,0	 # move reg to reg
	l.lwz   	r3,-24(r2)	 # SI load
	l.add   	r3,r3,r4 # addsi3
	l.lbz   	r3,0(r3)	 # zero_extendqisi2
	l.ori   	r4,r3,0	 # move reg to reg
	l.lwz   	r3,-28(r2)	 # SI load
	l.sfles 	r4,r3 # cmpsi_le
	l.bf	.L925
	l.nop			# nop delay slot
	l.lwz   	r3,-64(r2)	 # SI load
	l.ori   	r4,r3,0	 # move reg to reg
	l.lwz   	r3,-24(r2)	 # SI load
	l.add   	r3,r3,r4 # addsi3
	l.lbz   	r3,0(r3)	 # zero_extendqisi2
	l.ori   	r4,r3,0	 # move reg to reg
	l.lwz   	r3,-28(r2)	 # SI load
	l.sfles 	r4,r3 # cmpsi_le
	l.bf	.L926
	l.nop			# nop delay slot
	l.lwz   	r3,-60(r2)	 # SI load
	l.ori   	r4,r3,0	 # move reg to reg
	l.lwz   	r3,-24(r2)	 # SI load
	l.add   	r3,r3,r4 # addsi3
	l.lbz   	r3,0(r3)	 # zero_extendqisi2
	l.ori   	r4,r3,0	 # move reg to reg
	l.lwz   	r3,-28(r2)	 # SI load
	l.sfgts 	r4,r3 # cmpsi_gt
	l.bf	.L13
	l.nop			# nop delay slot
	l.j     	.L14 # jump_internal
	l.nop			# nop delay slot
.L159:
	l.lwz   	r3,-56(r2)	 # SI load
	l.ori   	r4,r3,0	 # move reg to reg
	l.lwz   	r3,-24(r2)	 # SI load
	l.add   	r3,r3,r4 # addsi3
	l.lbz   	r3,0(r3)	 # zero_extendqisi2
	l.ori   	r4,r3,0	 # move reg to reg
	l.lwz   	r3,-32(r2)	 # SI load
	l.sfges 	r4,r3 # cmpsi_ge
	l.bf	.L927
	l.nop			# nop delay slot
	l.lwz   	r3,-68(r2)	 # SI load
	l.ori   	r4,r3,0	 # move reg to reg
	l.lwz   	r3,-24(r2)	 # SI load
	l.add   	r3,r3,r4 # addsi3
	l.lbz   	r3,0(r3)	 # zero_extendqisi2
	l.ori   	r4,r3,0	 # move reg to reg
	l.lwz   	r3,-32(r2)	 # SI load
	l.sfges 	r4,r3 # cmpsi_ge
	l.bf	.L928
	l.nop			# nop delay slot
	l.lwz   	r3,-64(r2)	 # SI load
	l.ori   	r4,r3,0	 # move reg to reg
	l.lwz   	r3,-24(r2)	 # SI load
	l.add   	r3,r3,r4 # addsi3
	l.lbz   	r3,0(r3)	 # zero_extendqisi2
	l.ori   	r4,r3,0	 # move reg to reg
	l.lwz   	r3,-32(r2)	 # SI load
	l.sfges 	r4,r3 # cmpsi_ge
	l.bf	.L929
	l.nop			# nop delay slot
	l.lwz   	r3,-60(r2)	 # SI load
	l.ori   	r4,r3,0	 # move reg to reg
	l.lwz   	r3,-24(r2)	 # SI load
	l.add   	r3,r3,r4 # addsi3
	l.lbz   	r3,0(r3)	 # zero_extendqisi2
	l.ori   	r4,r3,0	 # move reg to reg
	l.lwz   	r3,-32(r2)	 # SI load
	l.sfges 	r4,r3 # cmpsi_ge
	l.bf	.L930
	l.nop			# nop delay slot
	l.lwz   	r3,-52(r2)	 # SI load
	l.ori   	r4,r3,0	 # move reg to reg
	l.lwz   	r3,-24(r2)	 # SI load
	l.add   	r3,r3,r4 # addsi3
	l.lbz   	r3,0(r3)	 # zero_extendqisi2
	l.ori   	r4,r3,0	 # move reg to reg
	l.lwz   	r3,-32(r2)	 # SI load
	l.sfges 	r4,r3 # cmpsi_ge
	l.bf	.L931
	l.nop			# nop delay slot
	l.lwz   	r3,-72(r2)	 # SI load
	l.ori   	r4,r3,0	 # move reg to reg
	l.lwz   	r3,-24(r2)	 # SI load
	l.add   	r3,r3,r4 # addsi3
	l.lbz   	r3,0(r3)	 # zero_extendqisi2
	l.ori   	r4,r3,0	 # move reg to reg
	l.lwz   	r3,-32(r2)	 # SI load
	l.sfges 	r4,r3 # cmpsi_ge
	l.bf	.L181
	l.nop			# nop delay slot
	l.lwz   	r3,-76(r2)	 # SI load
	l.ori   	r4,r3,0	 # move reg to reg
	l.lwz   	r3,-24(r2)	 # SI load
	l.add   	r3,r3,r4 # addsi3
	l.lbz   	r3,0(r3)	 # zero_extendqisi2
	l.ori   	r4,r3,0	 # move reg to reg
	l.lwz   	r3,-32(r2)	 # SI load
	l.sfges 	r4,r3 # cmpsi_ge
	l.bf	.L182
	l.nop			# nop delay slot
	l.lwz   	r3,-80(r2)	 # SI load
	l.ori   	r4,r3,0	 # move reg to reg
	l.lwz   	r3,-24(r2)	 # SI load
	l.add   	r3,r3,r4 # addsi3
	l.lbz   	r3,0(r3)	 # zero_extendqisi2
	l.ori   	r4,r3,0	 # move reg to reg
	l.lwz   	r3,-32(r2)	 # SI load
	l.sflts 	r4,r3 # cmpsi_lt
	l.bf	.L13
	l.nop			# nop delay slot
	l.lwz   	r3,-48(r2)	 # SI load
	l.ori   	r4,r3,0	 # move reg to reg
	l.lwz   	r3,-24(r2)	 # SI load
	l.add   	r3,r3,r4 # addsi3
	l.lbz   	r3,0(r3)	 # zero_extendqisi2
	l.ori   	r4,r3,0	 # move reg to reg
	l.lwz   	r3,-32(r2)	 # SI load
	l.sfges 	r4,r3 # cmpsi_ge
	l.bf	.L932
	l.nop			# nop delay slot
	l.lwz   	r3,-44(r2)	 # SI load
	l.ori   	r4,r3,0	 # move reg to reg
	l.lwz   	r3,-24(r2)	 # SI load
	l.add   	r3,r3,r4 # addsi3
	l.lbz   	r3,0(r3)	 # zero_extendqisi2
	l.ori   	r4,r3,0	 # move reg to reg
	l.lwz   	r3,-32(r2)	 # SI load
	l.sflts 	r4,r3 # cmpsi_lt
	l.bf	.L13
	l.nop			# nop delay slot
	l.j     	.L14 # jump_internal
	l.nop			# nop delay slot
.L182:
	l.lwz   	r3,-48(r2)	 # SI load
	l.ori   	r4,r3,0	 # move reg to reg
	l.lwz   	r3,-24(r2)	 # SI load
	l.add   	r3,r3,r4 # addsi3
	l.lbz   	r3,0(r3)	 # zero_extendqisi2
	l.ori   	r4,r3,0	 # move reg to reg
	l.lwz   	r3,-32(r2)	 # SI load
	l.sfges 	r4,r3 # cmpsi_ge
	l.bf	.L933
	l.nop			# nop delay slot
	l.lwz   	r3,-44(r2)	 # SI load
	l.ori   	r4,r3,0	 # move reg to reg
	l.lwz   	r3,-24(r2)	 # SI load
	l.add   	r3,r3,r4 # addsi3
	l.lbz   	r3,0(r3)	 # zero_extendqisi2
	l.ori   	r4,r3,0	 # move reg to reg
	l.lwz   	r3,-32(r2)	 # SI load
	l.sfges 	r4,r3 # cmpsi_ge
	l.bf	.L934
	l.nop			# nop delay slot
	l.lwz   	r3,-40(r2)	 # SI load
	l.ori   	r4,r3,0	 # move reg to reg
	l.lwz   	r3,-24(r2)	 # SI load
	l.add   	r3,r3,r4 # addsi3
	l.lbz   	r3,0(r3)	 # zero_extendqisi2
	l.ori   	r4,r3,0	 # move reg to reg
	l.lwz   	r3,-32(r2)	 # SI load
	l.sflts 	r4,r3 # cmpsi_lt
	l.bf	.L13
	l.nop			# nop delay slot
	l.j     	.L14 # jump_internal
	l.nop			# nop delay slot
.L181:
	l.lwz   	r3,-48(r2)	 # SI load
	l.ori   	r4,r3,0	 # move reg to reg
	l.lwz   	r3,-24(r2)	 # SI load
	l.add   	r3,r3,r4 # addsi3
	l.lbz   	r3,0(r3)	 # zero_extendqisi2
	l.ori   	r4,r3,0	 # move reg to reg
	l.lwz   	r3,-32(r2)	 # SI load
	l.sfges 	r4,r3 # cmpsi_ge
	l.bf	.L935
	l.nop			# nop delay slot
	l.lwz   	r3,-44(r2)	 # SI load
	l.ori   	r4,r3,0	 # move reg to reg
	l.lwz   	r3,-24(r2)	 # SI load
	l.add   	r3,r3,r4 # addsi3
	l.lbz   	r3,0(r3)	 # zero_extendqisi2
	l.ori   	r4,r3,0	 # move reg to reg
	l.lwz   	r3,-32(r2)	 # SI load
	l.sfges 	r4,r3 # cmpsi_ge
	l.bf	.L936
	l.nop			# nop delay slot
	l.lwz   	r3,-40(r2)	 # SI load
	l.ori   	r4,r3,0	 # move reg to reg
	l.lwz   	r3,-24(r2)	 # SI load
	l.add   	r3,r3,r4 # addsi3
	l.lbz   	r3,0(r3)	 # zero_extendqisi2
	l.ori   	r4,r3,0	 # move reg to reg
	l.lwz   	r3,-32(r2)	 # SI load
	l.sfges 	r4,r3 # cmpsi_ge
	l.bf	.L937
	l.nop			# nop delay slot
	l.lwz   	r3,-36(r2)	 # SI load
	l.ori   	r4,r3,0	 # move reg to reg
	l.lwz   	r3,-24(r2)	 # SI load
	l.add   	r3,r3,r4 # addsi3
	l.lbz   	r3,0(r3)	 # zero_extendqisi2
	l.ori   	r4,r3,0	 # move reg to reg
	l.lwz   	r3,-32(r2)	 # SI load
	l.sflts 	r4,r3 # cmpsi_lt
	l.bf	.L13
	l.nop			# nop delay slot
	l.j     	.L14 # jump_internal
	l.nop			# nop delay slot
.L158:
	l.lwz   	r3,-56(r2)	 # SI load
	l.ori   	r4,r3,0	 # move reg to reg
	l.lwz   	r3,-24(r2)	 # SI load
	l.add   	r3,r3,r4 # addsi3
	l.lbz   	r3,0(r3)	 # zero_extendqisi2
	l.ori   	r4,r3,0	 # move reg to reg
	l.lwz   	r3,-28(r2)	 # SI load
	l.sfles 	r4,r3 # cmpsi_le
	l.bf	.L189
	l.nop			# nop delay slot
	l.lwz   	r3,-52(r2)	 # SI load
	l.ori   	r4,r3,0	 # move reg to reg
	l.lwz   	r3,-24(r2)	 # SI load
	l.add   	r3,r3,r4 # addsi3
	l.lbz   	r3,0(r3)	 # zero_extendqisi2
	l.ori   	r4,r3,0	 # move reg to reg
	l.lwz   	r3,-28(r2)	 # SI load
	l.sfles 	r4,r3 # cmpsi_le
	l.bf	.L938
	l.nop			# nop delay slot
	l.lwz   	r3,-48(r2)	 # SI load
	l.ori   	r4,r3,0	 # move reg to reg
	l.lwz   	r3,-24(r2)	 # SI load
	l.add   	r3,r3,r4 # addsi3
	l.lbz   	r3,0(r3)	 # zero_extendqisi2
	l.ori   	r4,r3,0	 # move reg to reg
	l.lwz   	r3,-28(r2)	 # SI load
	l.sfles 	r4,r3 # cmpsi_le
	l.bf	.L939
	l.nop			# nop delay slot
	l.lwz   	r3,-44(r2)	 # SI load
	l.ori   	r4,r3,0	 # move reg to reg
	l.lwz   	r3,-24(r2)	 # SI load
	l.add   	r3,r3,r4 # addsi3
	l.lbz   	r3,0(r3)	 # zero_extendqisi2
	l.ori   	r4,r3,0	 # move reg to reg
	l.lwz   	r3,-28(r2)	 # SI load
	l.sfles 	r4,r3 # cmpsi_le
	l.bf	.L192
	l.nop			# nop delay slot
	l.lwz   	r3,-40(r2)	 # SI load
	l.ori   	r4,r3,0	 # move reg to reg
	l.lwz   	r3,-24(r2)	 # SI load
	l.add   	r3,r3,r4 # addsi3
	l.lbz   	r3,0(r3)	 # zero_extendqisi2
	l.ori   	r4,r3,0	 # move reg to reg
	l.lwz   	r3,-28(r2)	 # SI load
	l.sfles 	r4,r3 # cmpsi_le
	l.bf	.L193
	l.nop			# nop delay slot
	l.lwz   	r3,-36(r2)	 # SI load
	l.ori   	r4,r3,0	 # move reg to reg
	l.lwz   	r3,-24(r2)	 # SI load
	l.add   	r3,r3,r4 # addsi3
	l.lbz   	r3,0(r3)	 # zero_extendqisi2
	l.ori   	r4,r3,0	 # move reg to reg
	l.lwz   	r3,-28(r2)	 # SI load
	l.sfgts 	r4,r3 # cmpsi_gt
	l.bf	.L13
	l.nop			# nop delay slot
	l.lwz   	r3,-72(r2)	 # SI load
	l.ori   	r4,r3,0	 # move reg to reg
	l.lwz   	r3,-24(r2)	 # SI load
	l.add   	r3,r3,r4 # addsi3
	l.lbz   	r3,0(r3)	 # zero_extendqisi2
	l.ori   	r4,r3,0	 # move reg to reg
	l.lwz   	r3,-28(r2)	 # SI load
	l.sfles 	r4,r3 # cmpsi_le
	l.bf	.L940
	l.nop			# nop delay slot
	l.lwz   	r3,-68(r2)	 # SI load
	l.ori   	r4,r3,0	 # move reg to reg
	l.lwz   	r3,-24(r2)	 # SI load
	l.add   	r3,r3,r4 # addsi3
	l.lbz   	r3,0(r3)	 # zero_extendqisi2
	l.ori   	r4,r3,0	 # move reg to reg
	l.lwz   	r3,-28(r2)	 # SI load
	l.sfles 	r4,r3 # cmpsi_le
	l.bf	.L941
	l.nop			# nop delay slot
	l.lwz   	r3,-64(r2)	 # SI load
	l.ori   	r4,r3,0	 # move reg to reg
	l.lwz   	r3,-24(r2)	 # SI load
	l.add   	r3,r3,r4 # addsi3
	l.lbz   	r3,0(r3)	 # zero_extendqisi2
	l.ori   	r4,r3,0	 # move reg to reg
	l.lwz   	r3,-28(r2)	 # SI load
	l.sfles 	r4,r3 # cmpsi_le
	l.bf	.L942
	l.nop			# nop delay slot
	l.lwz   	r3,-60(r2)	 # SI load
	l.ori   	r4,r3,0	 # move reg to reg
	l.lwz   	r3,-24(r2)	 # SI load
	l.add   	r3,r3,r4 # addsi3
	l.lbz   	r3,0(r3)	 # zero_extendqisi2
	l.ori   	r4,r3,0	 # move reg to reg
	l.lwz   	r3,-28(r2)	 # SI load
	l.sfgts 	r4,r3 # cmpsi_gt
	l.bf	.L13
	l.nop			# nop delay slot
	l.j     	.L14 # jump_internal
	l.nop			# nop delay slot
.L193:
	l.lwz   	r3,-76(r2)	 # SI load
	l.ori   	r4,r3,0	 # move reg to reg
	l.lwz   	r3,-24(r2)	 # SI load
	l.add   	r3,r3,r4 # addsi3
	l.lbz   	r3,0(r3)	 # zero_extendqisi2
	l.ori   	r4,r3,0	 # move reg to reg
	l.lwz   	r3,-28(r2)	 # SI load
	l.sfles 	r4,r3 # cmpsi_le
	l.bf	.L943
	l.nop			# nop delay slot
	l.lwz   	r3,-72(r2)	 # SI load
	l.ori   	r4,r3,0	 # move reg to reg
	l.lwz   	r3,-24(r2)	 # SI load
	l.add   	r3,r3,r4 # addsi3
	l.lbz   	r3,0(r3)	 # zero_extendqisi2
	l.ori   	r4,r3,0	 # move reg to reg
	l.lwz   	r3,-28(r2)	 # SI load
	l.sfles 	r4,r3 # cmpsi_le
	l.bf	.L944
	l.nop			# nop delay slot
	l.lwz   	r3,-68(r2)	 # SI load
	l.ori   	r4,r3,0	 # move reg to reg
	l.lwz   	r3,-24(r2)	 # SI load
	l.add   	r3,r3,r4 # addsi3
	l.lbz   	r3,0(r3)	 # zero_extendqisi2
	l.ori   	r4,r3,0	 # move reg to reg
	l.lwz   	r3,-28(r2)	 # SI load
	l.sfles 	r4,r3 # cmpsi_le
	l.bf	.L945
	l.nop			# nop delay slot
	l.lwz   	r3,-64(r2)	 # SI load
	l.ori   	r4,r3,0	 # move reg to reg
	l.lwz   	r3,-24(r2)	 # SI load
	l.add   	r3,r3,r4 # addsi3
	l.lbz   	r3,0(r3)	 # zero_extendqisi2
	l.ori   	r4,r3,0	 # move reg to reg
	l.lwz   	r3,-28(r2)	 # SI load
	l.sfles 	r4,r3 # cmpsi_le
	l.bf	.L946
	l.nop			# nop delay slot
	l.lwz   	r3,-60(r2)	 # SI load
	l.ori   	r4,r3,0	 # move reg to reg
	l.lwz   	r3,-24(r2)	 # SI load
	l.add   	r3,r3,r4 # addsi3
	l.lbz   	r3,0(r3)	 # zero_extendqisi2
	l.ori   	r4,r3,0	 # move reg to reg
	l.lwz   	r3,-28(r2)	 # SI load
	l.sfgts 	r4,r3 # cmpsi_gt
	l.bf	.L13
	l.nop			# nop delay slot
	l.j     	.L14 # jump_internal
	l.nop			# nop delay slot
.L192:
	l.lwz   	r3,-80(r2)	 # SI load
	l.ori   	r4,r3,0	 # move reg to reg
	l.lwz   	r3,-24(r2)	 # SI load
	l.add   	r3,r3,r4 # addsi3
	l.lbz   	r3,0(r3)	 # zero_extendqisi2
	l.ori   	r4,r3,0	 # move reg to reg
	l.lwz   	r3,-28(r2)	 # SI load
	l.sfles 	r4,r3 # cmpsi_le
	l.bf	.L947
	l.nop			# nop delay slot
	l.lwz   	r3,-76(r2)	 # SI load
	l.ori   	r4,r3,0	 # move reg to reg
	l.lwz   	r3,-24(r2)	 # SI load
	l.add   	r3,r3,r4 # addsi3
	l.lbz   	r3,0(r3)	 # zero_extendqisi2
	l.ori   	r4,r3,0	 # move reg to reg
	l.lwz   	r3,-28(r2)	 # SI load
	l.sfles 	r4,r3 # cmpsi_le
	l.bf	.L948
	l.nop			# nop delay slot
	l.lwz   	r3,-72(r2)	 # SI load
	l.ori   	r4,r3,0	 # move reg to reg
	l.lwz   	r3,-24(r2)	 # SI load
	l.add   	r3,r3,r4 # addsi3
	l.lbz   	r3,0(r3)	 # zero_extendqisi2
	l.ori   	r4,r3,0	 # move reg to reg
	l.lwz   	r3,-28(r2)	 # SI load
	l.sfles 	r4,r3 # cmpsi_le
	l.bf	.L949
	l.nop			# nop delay slot
	l.lwz   	r3,-68(r2)	 # SI load
	l.ori   	r4,r3,0	 # move reg to reg
	l.lwz   	r3,-24(r2)	 # SI load
	l.add   	r3,r3,r4 # addsi3
	l.lbz   	r3,0(r3)	 # zero_extendqisi2
	l.ori   	r4,r3,0	 # move reg to reg
	l.lwz   	r3,-28(r2)	 # SI load
	l.sfles 	r4,r3 # cmpsi_le
	l.bf	.L950
	l.nop			# nop delay slot
	l.lwz   	r3,-64(r2)	 # SI load
	l.ori   	r4,r3,0	 # move reg to reg
	l.lwz   	r3,-24(r2)	 # SI load
	l.add   	r3,r3,r4 # addsi3
	l.lbz   	r3,0(r3)	 # zero_extendqisi2
	l.ori   	r4,r3,0	 # move reg to reg
	l.lwz   	r3,-28(r2)	 # SI load
	l.sfles 	r4,r3 # cmpsi_le
	l.bf	.L951
	l.nop			# nop delay slot
	l.lwz   	r3,-60(r2)	 # SI load
	l.ori   	r4,r3,0	 # move reg to reg
	l.lwz   	r3,-24(r2)	 # SI load
	l.add   	r3,r3,r4 # addsi3
	l.lbz   	r3,0(r3)	 # zero_extendqisi2
	l.ori   	r4,r3,0	 # move reg to reg
	l.lwz   	r3,-28(r2)	 # SI load
	l.sfgts 	r4,r3 # cmpsi_gt
	l.bf	.L13
	l.nop			# nop delay slot
	l.j     	.L14 # jump_internal
	l.nop			# nop delay slot
.L189:
	l.lwz   	r3,-56(r2)	 # SI load
	l.ori   	r4,r3,0	 # move reg to reg
	l.lwz   	r3,-24(r2)	 # SI load
	l.add   	r3,r3,r4 # addsi3
	l.lbz   	r3,0(r3)	 # zero_extendqisi2
	l.ori   	r4,r3,0	 # move reg to reg
	l.lwz   	r3,-32(r2)	 # SI load
	l.sfges 	r4,r3 # cmpsi_ge
	l.bf	.L952
	l.nop			# nop delay slot
	l.lwz   	r3,-68(r2)	 # SI load
	l.ori   	r4,r3,0	 # move reg to reg
	l.lwz   	r3,-24(r2)	 # SI load
	l.add   	r3,r3,r4 # addsi3
	l.lbz   	r3,0(r3)	 # zero_extendqisi2
	l.ori   	r4,r3,0	 # move reg to reg
	l.lwz   	r3,-32(r2)	 # SI load
	l.sfges 	r4,r3 # cmpsi_ge
	l.bf	.L953
	l.nop			# nop delay slot
	l.lwz   	r3,-64(r2)	 # SI load
	l.ori   	r4,r3,0	 # move reg to reg
	l.lwz   	r3,-24(r2)	 # SI load
	l.add   	r3,r3,r4 # addsi3
	l.lbz   	r3,0(r3)	 # zero_extendqisi2
	l.ori   	r4,r3,0	 # move reg to reg
	l.lwz   	r3,-32(r2)	 # SI load
	l.sfges 	r4,r3 # cmpsi_ge
	l.bf	.L954
	l.nop			# nop delay slot
	l.lwz   	r3,-60(r2)	 # SI load
	l.ori   	r4,r3,0	 # move reg to reg
	l.lwz   	r3,-24(r2)	 # SI load
	l.add   	r3,r3,r4 # addsi3
	l.lbz   	r3,0(r3)	 # zero_extendqisi2
	l.ori   	r4,r3,0	 # move reg to reg
	l.lwz   	r3,-32(r2)	 # SI load
	l.sfges 	r4,r3 # cmpsi_ge
	l.bf	.L955
	l.nop			# nop delay slot
	l.lwz   	r3,-52(r2)	 # SI load
	l.ori   	r4,r3,0	 # move reg to reg
	l.lwz   	r3,-24(r2)	 # SI load
	l.add   	r3,r3,r4 # addsi3
	l.lbz   	r3,0(r3)	 # zero_extendqisi2
	l.ori   	r4,r3,0	 # move reg to reg
	l.lwz   	r3,-32(r2)	 # SI load
	l.sfges 	r4,r3 # cmpsi_ge
	l.bf	.L956
	l.nop			# nop delay slot
	l.lwz   	r3,-48(r2)	 # SI load
	l.ori   	r4,r3,0	 # move reg to reg
	l.lwz   	r3,-24(r2)	 # SI load
	l.add   	r3,r3,r4 # addsi3
	l.lbz   	r3,0(r3)	 # zero_extendqisi2
	l.ori   	r4,r3,0	 # move reg to reg
	l.lwz   	r3,-32(r2)	 # SI load
	l.sfges 	r4,r3 # cmpsi_ge
	l.bf	.L957
	l.nop			# nop delay slot
	l.lwz   	r3,-72(r2)	 # SI load
	l.ori   	r4,r3,0	 # move reg to reg
	l.lwz   	r3,-24(r2)	 # SI load
	l.add   	r3,r3,r4 # addsi3
	l.lbz   	r3,0(r3)	 # zero_extendqisi2
	l.ori   	r4,r3,0	 # move reg to reg
	l.lwz   	r3,-32(r2)	 # SI load
	l.sfges 	r4,r3 # cmpsi_ge
	l.bf	.L212
	l.nop			# nop delay slot
	l.lwz   	r3,-76(r2)	 # SI load
	l.ori   	r4,r3,0	 # move reg to reg
	l.lwz   	r3,-24(r2)	 # SI load
	l.add   	r3,r3,r4 # addsi3
	l.lbz   	r3,0(r3)	 # zero_extendqisi2
	l.ori   	r4,r3,0	 # move reg to reg
	l.lwz   	r3,-32(r2)	 # SI load
	l.sfges 	r4,r3 # cmpsi_ge
	l.bf	.L213
	l.nop			# nop delay slot
	l.lwz   	r3,-80(r2)	 # SI load
	l.ori   	r4,r3,0	 # move reg to reg
	l.lwz   	r3,-24(r2)	 # SI load
	l.add   	r3,r3,r4 # addsi3
	l.lbz   	r3,0(r3)	 # zero_extendqisi2
	l.ori   	r4,r3,0	 # move reg to reg
	l.lwz   	r3,-32(r2)	 # SI load
	l.sflts 	r4,r3 # cmpsi_lt
	l.bf	.L13
	l.nop			# nop delay slot
	l.lwz   	r3,-44(r2)	 # SI load
	l.ori   	r4,r3,0	 # move reg to reg
	l.lwz   	r3,-24(r2)	 # SI load
	l.add   	r3,r3,r4 # addsi3
	l.lbz   	r3,0(r3)	 # zero_extendqisi2
	l.ori   	r4,r3,0	 # move reg to reg
	l.lwz   	r3,-32(r2)	 # SI load
	l.sflts 	r4,r3 # cmpsi_lt
	l.bf	.L13
	l.nop			# nop delay slot
	l.j     	.L14 # jump_internal
	l.nop			# nop delay slot
.L213:
	l.lwz   	r3,-44(r2)	 # SI load
	l.ori   	r4,r3,0	 # move reg to reg
	l.lwz   	r3,-24(r2)	 # SI load
	l.add   	r3,r3,r4 # addsi3
	l.lbz   	r3,0(r3)	 # zero_extendqisi2
	l.ori   	r4,r3,0	 # move reg to reg
	l.lwz   	r3,-32(r2)	 # SI load
	l.sfges 	r4,r3 # cmpsi_ge
	l.bf	.L958
	l.nop			# nop delay slot
	l.lwz   	r3,-40(r2)	 # SI load
	l.ori   	r4,r3,0	 # move reg to reg
	l.lwz   	r3,-24(r2)	 # SI load
	l.add   	r3,r3,r4 # addsi3
	l.lbz   	r3,0(r3)	 # zero_extendqisi2
	l.ori   	r4,r3,0	 # move reg to reg
	l.lwz   	r3,-32(r2)	 # SI load
	l.sflts 	r4,r3 # cmpsi_lt
	l.bf	.L13
	l.nop			# nop delay slot
	l.j     	.L14 # jump_internal
	l.nop			# nop delay slot
.L212:
	l.lwz   	r3,-44(r2)	 # SI load
	l.ori   	r4,r3,0	 # move reg to reg
	l.lwz   	r3,-24(r2)	 # SI load
	l.add   	r3,r3,r4 # addsi3
	l.lbz   	r3,0(r3)	 # zero_extendqisi2
	l.ori   	r4,r3,0	 # move reg to reg
	l.lwz   	r3,-32(r2)	 # SI load
	l.sfges 	r4,r3 # cmpsi_ge
	l.bf	.L959
	l.nop			# nop delay slot
	l.lwz   	r3,-40(r2)	 # SI load
	l.ori   	r4,r3,0	 # move reg to reg
	l.lwz   	r3,-24(r2)	 # SI load
	l.add   	r3,r3,r4 # addsi3
	l.lbz   	r3,0(r3)	 # zero_extendqisi2
	l.ori   	r4,r3,0	 # move reg to reg
	l.lwz   	r3,-32(r2)	 # SI load
	l.sfges 	r4,r3 # cmpsi_ge
	l.bf	.L960
	l.nop			# nop delay slot
	l.lwz   	r3,-36(r2)	 # SI load
	l.ori   	r4,r3,0	 # move reg to reg
	l.lwz   	r3,-24(r2)	 # SI load
	l.add   	r3,r3,r4 # addsi3
	l.lbz   	r3,0(r3)	 # zero_extendqisi2
	l.ori   	r4,r3,0	 # move reg to reg
	l.lwz   	r3,-32(r2)	 # SI load
	l.sflts 	r4,r3 # cmpsi_lt
	l.bf	.L13
	l.nop			# nop delay slot
	l.j     	.L14 # jump_internal
	l.nop			# nop delay slot
.L7:
	l.lwz   	r3,-88(r2)	 # SI load
	l.ori   	r4,r3,0	 # move reg to reg
	l.lwz   	r3,-24(r2)	 # SI load
	l.add   	r3,r3,r4 # addsi3
	l.lbz   	r3,0(r3)	 # zero_extendqisi2
	l.ori   	r4,r3,0	 # move reg to reg
	l.lwz   	r3,-32(r2)	 # SI load
	l.sfges 	r4,r3 # cmpsi_ge
	l.bf	.L217
	l.nop			# nop delay slot
	l.lwz   	r3,-60(r2)	 # SI load
	l.ori   	r4,r3,0	 # move reg to reg
	l.lwz   	r3,-24(r2)	 # SI load
	l.add   	r3,r3,r4 # addsi3
	l.lbz   	r3,0(r3)	 # zero_extendqisi2
	l.ori   	r4,r3,0	 # move reg to reg
	l.lwz   	r3,-28(r2)	 # SI load
	l.sfles 	r4,r3 # cmpsi_le
	l.bf	.L218
	l.nop			# nop delay slot
	l.lwz   	r3,-56(r2)	 # SI load
	l.ori   	r4,r3,0	 # move reg to reg
	l.lwz   	r3,-24(r2)	 # SI load
	l.add   	r3,r3,r4 # addsi3
	l.lbz   	r3,0(r3)	 # zero_extendqisi2
	l.ori   	r4,r3,0	 # move reg to reg
	l.lwz   	r3,-28(r2)	 # SI load
	l.sfles 	r4,r3 # cmpsi_le
	l.bf	.L961
	l.nop			# nop delay slot
	l.lwz   	r3,-52(r2)	 # SI load
	l.ori   	r4,r3,0	 # move reg to reg
	l.lwz   	r3,-24(r2)	 # SI load
	l.add   	r3,r3,r4 # addsi3
	l.lbz   	r3,0(r3)	 # zero_extendqisi2
	l.ori   	r4,r3,0	 # move reg to reg
	l.lwz   	r3,-28(r2)	 # SI load
	l.sfles 	r4,r3 # cmpsi_le
	l.bf	.L962
	l.nop			# nop delay slot
	l.lwz   	r3,-48(r2)	 # SI load
	l.ori   	r4,r3,0	 # move reg to reg
	l.lwz   	r3,-24(r2)	 # SI load
	l.add   	r3,r3,r4 # addsi3
	l.lbz   	r3,0(r3)	 # zero_extendqisi2
	l.ori   	r4,r3,0	 # move reg to reg
	l.lwz   	r3,-28(r2)	 # SI load
	l.sfles 	r4,r3 # cmpsi_le
	l.bf	.L221
	l.nop			# nop delay slot
	l.lwz   	r3,-44(r2)	 # SI load
	l.ori   	r4,r3,0	 # move reg to reg
	l.lwz   	r3,-24(r2)	 # SI load
	l.add   	r3,r3,r4 # addsi3
	l.lbz   	r3,0(r3)	 # zero_extendqisi2
	l.ori   	r4,r3,0	 # move reg to reg
	l.lwz   	r3,-28(r2)	 # SI load
	l.sfles 	r4,r3 # cmpsi_le
	l.bf	.L222
	l.nop			# nop delay slot
	l.lwz   	r3,-40(r2)	 # SI load
	l.ori   	r4,r3,0	 # move reg to reg
	l.lwz   	r3,-24(r2)	 # SI load
	l.add   	r3,r3,r4 # addsi3
	l.lbz   	r3,0(r3)	 # zero_extendqisi2
	l.ori   	r4,r3,0	 # move reg to reg
	l.lwz   	r3,-28(r2)	 # SI load
	l.sfles 	r4,r3 # cmpsi_le
	l.bf	.L223
	l.nop			# nop delay slot
	l.lwz   	r3,-36(r2)	 # SI load
	l.ori   	r4,r3,0	 # move reg to reg
	l.lwz   	r3,-24(r2)	 # SI load
	l.add   	r3,r3,r4 # addsi3
	l.lbz   	r3,0(r3)	 # zero_extendqisi2
	l.ori   	r4,r3,0	 # move reg to reg
	l.lwz   	r3,-28(r2)	 # SI load
	l.sfgts 	r4,r3 # cmpsi_gt
	l.bf	.L13
	l.nop			# nop delay slot
	l.lwz   	r3,-72(r2)	 # SI load
	l.ori   	r4,r3,0	 # move reg to reg
	l.lwz   	r3,-24(r2)	 # SI load
	l.add   	r3,r3,r4 # addsi3
	l.lbz   	r3,0(r3)	 # zero_extendqisi2
	l.ori   	r4,r3,0	 # move reg to reg
	l.lwz   	r3,-28(r2)	 # SI load
	l.sfles 	r4,r3 # cmpsi_le
	l.bf	.L963
	l.nop			# nop delay slot
	l.lwz   	r3,-68(r2)	 # SI load
	l.ori   	r4,r3,0	 # move reg to reg
	l.lwz   	r3,-24(r2)	 # SI load
	l.add   	r3,r3,r4 # addsi3
	l.lbz   	r3,0(r3)	 # zero_extendqisi2
	l.ori   	r4,r3,0	 # move reg to reg
	l.lwz   	r3,-28(r2)	 # SI load
	l.sfles 	r4,r3 # cmpsi_le
	l.bf	.L964
	l.nop			# nop delay slot
	l.lwz   	r3,-64(r2)	 # SI load
	l.ori   	r4,r3,0	 # move reg to reg
	l.lwz   	r3,-24(r2)	 # SI load
	l.add   	r3,r3,r4 # addsi3
	l.lbz   	r3,0(r3)	 # zero_extendqisi2
	l.ori   	r4,r3,0	 # move reg to reg
	l.lwz   	r3,-28(r2)	 # SI load
	l.sfgts 	r4,r3 # cmpsi_gt
	l.bf	.L13
	l.nop			# nop delay slot
	l.j     	.L14 # jump_internal
	l.nop			# nop delay slot
.L223:
	l.lwz   	r3,-76(r2)	 # SI load
	l.ori   	r4,r3,0	 # move reg to reg
	l.lwz   	r3,-24(r2)	 # SI load
	l.add   	r3,r3,r4 # addsi3
	l.lbz   	r3,0(r3)	 # zero_extendqisi2
	l.ori   	r4,r3,0	 # move reg to reg
	l.lwz   	r3,-28(r2)	 # SI load
	l.sfles 	r4,r3 # cmpsi_le
	l.bf	.L965
	l.nop			# nop delay slot
	l.lwz   	r3,-72(r2)	 # SI load
	l.ori   	r4,r3,0	 # move reg to reg
	l.lwz   	r3,-24(r2)	 # SI load
	l.add   	r3,r3,r4 # addsi3
	l.lbz   	r3,0(r3)	 # zero_extendqisi2
	l.ori   	r4,r3,0	 # move reg to reg
	l.lwz   	r3,-28(r2)	 # SI load
	l.sfles 	r4,r3 # cmpsi_le
	l.bf	.L966
	l.nop			# nop delay slot
	l.lwz   	r3,-68(r2)	 # SI load
	l.ori   	r4,r3,0	 # move reg to reg
	l.lwz   	r3,-24(r2)	 # SI load
	l.add   	r3,r3,r4 # addsi3
	l.lbz   	r3,0(r3)	 # zero_extendqisi2
	l.ori   	r4,r3,0	 # move reg to reg
	l.lwz   	r3,-28(r2)	 # SI load
	l.sfles 	r4,r3 # cmpsi_le
	l.bf	.L967
	l.nop			# nop delay slot
	l.lwz   	r3,-64(r2)	 # SI load
	l.ori   	r4,r3,0	 # move reg to reg
	l.lwz   	r3,-24(r2)	 # SI load
	l.add   	r3,r3,r4 # addsi3
	l.lbz   	r3,0(r3)	 # zero_extendqisi2
	l.ori   	r4,r3,0	 # move reg to reg
	l.lwz   	r3,-28(r2)	 # SI load
	l.sfgts 	r4,r3 # cmpsi_gt
	l.bf	.L13
	l.nop			# nop delay slot
	l.j     	.L14 # jump_internal
	l.nop			# nop delay slot
.L222:
	l.lwz   	r3,-80(r2)	 # SI load
	l.ori   	r4,r3,0	 # move reg to reg
	l.lwz   	r3,-24(r2)	 # SI load
	l.add   	r3,r3,r4 # addsi3
	l.lbz   	r3,0(r3)	 # zero_extendqisi2
	l.ori   	r4,r3,0	 # move reg to reg
	l.lwz   	r3,-28(r2)	 # SI load
	l.sfles 	r4,r3 # cmpsi_le
	l.bf	.L968
	l.nop			# nop delay slot
	l.lwz   	r3,-76(r2)	 # SI load
	l.ori   	r4,r3,0	 # move reg to reg
	l.lwz   	r3,-24(r2)	 # SI load
	l.add   	r3,r3,r4 # addsi3
	l.lbz   	r3,0(r3)	 # zero_extendqisi2
	l.ori   	r4,r3,0	 # move reg to reg
	l.lwz   	r3,-28(r2)	 # SI load
	l.sfles 	r4,r3 # cmpsi_le
	l.bf	.L969
	l.nop			# nop delay slot
	l.lwz   	r3,-72(r2)	 # SI load
	l.ori   	r4,r3,0	 # move reg to reg
	l.lwz   	r3,-24(r2)	 # SI load
	l.add   	r3,r3,r4 # addsi3
	l.lbz   	r3,0(r3)	 # zero_extendqisi2
	l.ori   	r4,r3,0	 # move reg to reg
	l.lwz   	r3,-28(r2)	 # SI load
	l.sfles 	r4,r3 # cmpsi_le
	l.bf	.L970
	l.nop			# nop delay slot
	l.lwz   	r3,-68(r2)	 # SI load
	l.ori   	r4,r3,0	 # move reg to reg
	l.lwz   	r3,-24(r2)	 # SI load
	l.add   	r3,r3,r4 # addsi3
	l.lbz   	r3,0(r3)	 # zero_extendqisi2
	l.ori   	r4,r3,0	 # move reg to reg
	l.lwz   	r3,-28(r2)	 # SI load
	l.sfles 	r4,r3 # cmpsi_le
	l.bf	.L971
	l.nop			# nop delay slot
	l.lwz   	r3,-64(r2)	 # SI load
	l.ori   	r4,r3,0	 # move reg to reg
	l.lwz   	r3,-24(r2)	 # SI load
	l.add   	r3,r3,r4 # addsi3
	l.lbz   	r3,0(r3)	 # zero_extendqisi2
	l.ori   	r4,r3,0	 # move reg to reg
	l.lwz   	r3,-28(r2)	 # SI load
	l.sfgts 	r4,r3 # cmpsi_gt
	l.bf	.L13
	l.nop			# nop delay slot
	l.j     	.L14 # jump_internal
	l.nop			# nop delay slot
.L221:
	l.lwz   	r3,-84(r2)	 # SI load
	l.ori   	r4,r3,0	 # move reg to reg
	l.lwz   	r3,-24(r2)	 # SI load
	l.add   	r3,r3,r4 # addsi3
	l.lbz   	r3,0(r3)	 # zero_extendqisi2
	l.ori   	r4,r3,0	 # move reg to reg
	l.lwz   	r3,-28(r2)	 # SI load
	l.sfles 	r4,r3 # cmpsi_le
	l.bf	.L972
	l.nop			# nop delay slot
	l.lwz   	r3,-80(r2)	 # SI load
	l.ori   	r4,r3,0	 # move reg to reg
	l.lwz   	r3,-24(r2)	 # SI load
	l.add   	r3,r3,r4 # addsi3
	l.lbz   	r3,0(r3)	 # zero_extendqisi2
	l.ori   	r4,r3,0	 # move reg to reg
	l.lwz   	r3,-28(r2)	 # SI load
	l.sfles 	r4,r3 # cmpsi_le
	l.bf	.L973
	l.nop			# nop delay slot
	l.lwz   	r3,-76(r2)	 # SI load
	l.ori   	r4,r3,0	 # move reg to reg
	l.lwz   	r3,-24(r2)	 # SI load
	l.add   	r3,r3,r4 # addsi3
	l.lbz   	r3,0(r3)	 # zero_extendqisi2
	l.ori   	r4,r3,0	 # move reg to reg
	l.lwz   	r3,-28(r2)	 # SI load
	l.sfles 	r4,r3 # cmpsi_le
	l.bf	.L974
	l.nop			# nop delay slot
	l.lwz   	r3,-72(r2)	 # SI load
	l.ori   	r4,r3,0	 # move reg to reg
	l.lwz   	r3,-24(r2)	 # SI load
	l.add   	r3,r3,r4 # addsi3
	l.lbz   	r3,0(r3)	 # zero_extendqisi2
	l.ori   	r4,r3,0	 # move reg to reg
	l.lwz   	r3,-28(r2)	 # SI load
	l.sfles 	r4,r3 # cmpsi_le
	l.bf	.L975
	l.nop			# nop delay slot
	l.lwz   	r3,-68(r2)	 # SI load
	l.ori   	r4,r3,0	 # move reg to reg
	l.lwz   	r3,-24(r2)	 # SI load
	l.add   	r3,r3,r4 # addsi3
	l.lbz   	r3,0(r3)	 # zero_extendqisi2
	l.ori   	r4,r3,0	 # move reg to reg
	l.lwz   	r3,-28(r2)	 # SI load
	l.sfles 	r4,r3 # cmpsi_le
	l.bf	.L976
	l.nop			# nop delay slot
	l.lwz   	r3,-64(r2)	 # SI load
	l.ori   	r4,r3,0	 # move reg to reg
	l.lwz   	r3,-24(r2)	 # SI load
	l.add   	r3,r3,r4 # addsi3
	l.lbz   	r3,0(r3)	 # zero_extendqisi2
	l.ori   	r4,r3,0	 # move reg to reg
	l.lwz   	r3,-28(r2)	 # SI load
	l.sfgts 	r4,r3 # cmpsi_gt
	l.bf	.L13
	l.nop			# nop delay slot
	l.j     	.L14 # jump_internal
	l.nop			# nop delay slot
.L218:
	l.lwz   	r3,-60(r2)	 # SI load
	l.ori   	r4,r3,0	 # move reg to reg
	l.lwz   	r3,-24(r2)	 # SI load
	l.add   	r3,r3,r4 # addsi3
	l.lbz   	r3,0(r3)	 # zero_extendqisi2
	l.ori   	r4,r3,0	 # move reg to reg
	l.lwz   	r3,-32(r2)	 # SI load
	l.sfges 	r4,r3 # cmpsi_ge
	l.bf	.L977
	l.nop			# nop delay slot
	l.lwz   	r3,-68(r2)	 # SI load
	l.ori   	r4,r3,0	 # move reg to reg
	l.lwz   	r3,-24(r2)	 # SI load
	l.add   	r3,r3,r4 # addsi3
	l.lbz   	r3,0(r3)	 # zero_extendqisi2
	l.ori   	r4,r3,0	 # move reg to reg
	l.lwz   	r3,-32(r2)	 # SI load
	l.sfges 	r4,r3 # cmpsi_ge
	l.bf	.L978
	l.nop			# nop delay slot
	l.lwz   	r3,-64(r2)	 # SI load
	l.ori   	r4,r3,0	 # move reg to reg
	l.lwz   	r3,-24(r2)	 # SI load
	l.add   	r3,r3,r4 # addsi3
	l.lbz   	r3,0(r3)	 # zero_extendqisi2
	l.ori   	r4,r3,0	 # move reg to reg
	l.lwz   	r3,-32(r2)	 # SI load
	l.sfges 	r4,r3 # cmpsi_ge
	l.bf	.L979
	l.nop			# nop delay slot
	l.lwz   	r3,-56(r2)	 # SI load
	l.ori   	r4,r3,0	 # move reg to reg
	l.lwz   	r3,-24(r2)	 # SI load
	l.add   	r3,r3,r4 # addsi3
	l.lbz   	r3,0(r3)	 # zero_extendqisi2
	l.ori   	r4,r3,0	 # move reg to reg
	l.lwz   	r3,-32(r2)	 # SI load
	l.sfges 	r4,r3 # cmpsi_ge
	l.bf	.L980
	l.nop			# nop delay slot
	l.lwz   	r3,-72(r2)	 # SI load
	l.ori   	r4,r3,0	 # move reg to reg
	l.lwz   	r3,-24(r2)	 # SI load
	l.add   	r3,r3,r4 # addsi3
	l.lbz   	r3,0(r3)	 # zero_extendqisi2
	l.ori   	r4,r3,0	 # move reg to reg
	l.lwz   	r3,-32(r2)	 # SI load
	l.sfges 	r4,r3 # cmpsi_ge
	l.bf	.L242
	l.nop			# nop delay slot
	l.lwz   	r3,-76(r2)	 # SI load
	l.ori   	r4,r3,0	 # move reg to reg
	l.lwz   	r3,-24(r2)	 # SI load
	l.add   	r3,r3,r4 # addsi3
	l.lbz   	r3,0(r3)	 # zero_extendqisi2
	l.ori   	r4,r3,0	 # move reg to reg
	l.lwz   	r3,-32(r2)	 # SI load
	l.sfges 	r4,r3 # cmpsi_ge
	l.bf	.L243
	l.nop			# nop delay slot
	l.lwz   	r3,-80(r2)	 # SI load
	l.ori   	r4,r3,0	 # move reg to reg
	l.lwz   	r3,-24(r2)	 # SI load
	l.add   	r3,r3,r4 # addsi3
	l.lbz   	r3,0(r3)	 # zero_extendqisi2
	l.ori   	r4,r3,0	 # move reg to reg
	l.lwz   	r3,-32(r2)	 # SI load
	l.sfges 	r4,r3 # cmpsi_ge
	l.bf	.L244
	l.nop			# nop delay slot
	l.lwz   	r3,-84(r2)	 # SI load
	l.ori   	r4,r3,0	 # move reg to reg
	l.lwz   	r3,-24(r2)	 # SI load
	l.add   	r3,r3,r4 # addsi3
	l.lbz   	r3,0(r3)	 # zero_extendqisi2
	l.ori   	r4,r3,0	 # move reg to reg
	l.lwz   	r3,-32(r2)	 # SI load
	l.sflts 	r4,r3 # cmpsi_lt
	l.bf	.L13
	l.nop			# nop delay slot
	l.lwz   	r3,-52(r2)	 # SI load
	l.ori   	r4,r3,0	 # move reg to reg
	l.lwz   	r3,-24(r2)	 # SI load
	l.add   	r3,r3,r4 # addsi3
	l.lbz   	r3,0(r3)	 # zero_extendqisi2
	l.ori   	r4,r3,0	 # move reg to reg
	l.lwz   	r3,-32(r2)	 # SI load
	l.sfges 	r4,r3 # cmpsi_ge
	l.bf	.L981
	l.nop			# nop delay slot
	l.lwz   	r3,-48(r2)	 # SI load
	l.ori   	r4,r3,0	 # move reg to reg
	l.lwz   	r3,-24(r2)	 # SI load
	l.add   	r3,r3,r4 # addsi3
	l.lbz   	r3,0(r3)	 # zero_extendqisi2
	l.ori   	r4,r3,0	 # move reg to reg
	l.lwz   	r3,-32(r2)	 # SI load
	l.sflts 	r4,r3 # cmpsi_lt
	l.bf	.L13
	l.nop			# nop delay slot
	l.j     	.L14 # jump_internal
	l.nop			# nop delay slot
.L244:
	l.lwz   	r3,-52(r2)	 # SI load
	l.ori   	r4,r3,0	 # move reg to reg
	l.lwz   	r3,-24(r2)	 # SI load
	l.add   	r3,r3,r4 # addsi3
	l.lbz   	r3,0(r3)	 # zero_extendqisi2
	l.ori   	r4,r3,0	 # move reg to reg
	l.lwz   	r3,-32(r2)	 # SI load
	l.sfges 	r4,r3 # cmpsi_ge
	l.bf	.L982
	l.nop			# nop delay slot
	l.lwz   	r3,-48(r2)	 # SI load
	l.ori   	r4,r3,0	 # move reg to reg
	l.lwz   	r3,-24(r2)	 # SI load
	l.add   	r3,r3,r4 # addsi3
	l.lbz   	r3,0(r3)	 # zero_extendqisi2
	l.ori   	r4,r3,0	 # move reg to reg
	l.lwz   	r3,-32(r2)	 # SI load
	l.sfges 	r4,r3 # cmpsi_ge
	l.bf	.L983
	l.nop			# nop delay slot
	l.lwz   	r3,-44(r2)	 # SI load
	l.ori   	r4,r3,0	 # move reg to reg
	l.lwz   	r3,-24(r2)	 # SI load
	l.add   	r3,r3,r4 # addsi3
	l.lbz   	r3,0(r3)	 # zero_extendqisi2
	l.ori   	r4,r3,0	 # move reg to reg
	l.lwz   	r3,-32(r2)	 # SI load
	l.sflts 	r4,r3 # cmpsi_lt
	l.bf	.L13
	l.nop			# nop delay slot
	l.j     	.L14 # jump_internal
	l.nop			# nop delay slot
.L243:
	l.lwz   	r3,-52(r2)	 # SI load
	l.ori   	r4,r3,0	 # move reg to reg
	l.lwz   	r3,-24(r2)	 # SI load
	l.add   	r3,r3,r4 # addsi3
	l.lbz   	r3,0(r3)	 # zero_extendqisi2
	l.ori   	r4,r3,0	 # move reg to reg
	l.lwz   	r3,-32(r2)	 # SI load
	l.sfges 	r4,r3 # cmpsi_ge
	l.bf	.L984
	l.nop			# nop delay slot
	l.lwz   	r3,-48(r2)	 # SI load
	l.ori   	r4,r3,0	 # move reg to reg
	l.lwz   	r3,-24(r2)	 # SI load
	l.add   	r3,r3,r4 # addsi3
	l.lbz   	r3,0(r3)	 # zero_extendqisi2
	l.ori   	r4,r3,0	 # move reg to reg
	l.lwz   	r3,-32(r2)	 # SI load
	l.sfges 	r4,r3 # cmpsi_ge
	l.bf	.L985
	l.nop			# nop delay slot
	l.lwz   	r3,-44(r2)	 # SI load
	l.ori   	r4,r3,0	 # move reg to reg
	l.lwz   	r3,-24(r2)	 # SI load
	l.add   	r3,r3,r4 # addsi3
	l.lbz   	r3,0(r3)	 # zero_extendqisi2
	l.ori   	r4,r3,0	 # move reg to reg
	l.lwz   	r3,-32(r2)	 # SI load
	l.sfges 	r4,r3 # cmpsi_ge
	l.bf	.L986
	l.nop			# nop delay slot
	l.lwz   	r3,-40(r2)	 # SI load
	l.ori   	r4,r3,0	 # move reg to reg
	l.lwz   	r3,-24(r2)	 # SI load
	l.add   	r3,r3,r4 # addsi3
	l.lbz   	r3,0(r3)	 # zero_extendqisi2
	l.ori   	r4,r3,0	 # move reg to reg
	l.lwz   	r3,-32(r2)	 # SI load
	l.sflts 	r4,r3 # cmpsi_lt
	l.bf	.L13
	l.nop			# nop delay slot
	l.j     	.L14 # jump_internal
	l.nop			# nop delay slot
.L242:
	l.lwz   	r3,-52(r2)	 # SI load
	l.ori   	r4,r3,0	 # move reg to reg
	l.lwz   	r3,-24(r2)	 # SI load
	l.add   	r3,r3,r4 # addsi3
	l.lbz   	r3,0(r3)	 # zero_extendqisi2
	l.ori   	r4,r3,0	 # move reg to reg
	l.lwz   	r3,-32(r2)	 # SI load
	l.sfges 	r4,r3 # cmpsi_ge
	l.bf	.L987
	l.nop			# nop delay slot
	l.lwz   	r3,-48(r2)	 # SI load
	l.ori   	r4,r3,0	 # move reg to reg
	l.lwz   	r3,-24(r2)	 # SI load
	l.add   	r3,r3,r4 # addsi3
	l.lbz   	r3,0(r3)	 # zero_extendqisi2
	l.ori   	r4,r3,0	 # move reg to reg
	l.lwz   	r3,-32(r2)	 # SI load
	l.sfges 	r4,r3 # cmpsi_ge
	l.bf	.L988
	l.nop			# nop delay slot
	l.lwz   	r3,-44(r2)	 # SI load
	l.ori   	r4,r3,0	 # move reg to reg
	l.lwz   	r3,-24(r2)	 # SI load
	l.add   	r3,r3,r4 # addsi3
	l.lbz   	r3,0(r3)	 # zero_extendqisi2
	l.ori   	r4,r3,0	 # move reg to reg
	l.lwz   	r3,-32(r2)	 # SI load
	l.sfges 	r4,r3 # cmpsi_ge
	l.bf	.L989
	l.nop			# nop delay slot
	l.lwz   	r3,-40(r2)	 # SI load
	l.ori   	r4,r3,0	 # move reg to reg
	l.lwz   	r3,-24(r2)	 # SI load
	l.add   	r3,r3,r4 # addsi3
	l.lbz   	r3,0(r3)	 # zero_extendqisi2
	l.ori   	r4,r3,0	 # move reg to reg
	l.lwz   	r3,-32(r2)	 # SI load
	l.sfges 	r4,r3 # cmpsi_ge
	l.bf	.L990
	l.nop			# nop delay slot
	l.lwz   	r3,-36(r2)	 # SI load
	l.ori   	r4,r3,0	 # move reg to reg
	l.lwz   	r3,-24(r2)	 # SI load
	l.add   	r3,r3,r4 # addsi3
	l.lbz   	r3,0(r3)	 # zero_extendqisi2
	l.ori   	r4,r3,0	 # move reg to reg
	l.lwz   	r3,-32(r2)	 # SI load
	l.sflts 	r4,r3 # cmpsi_lt
	l.bf	.L13
	l.nop			# nop delay slot
	l.j     	.L14 # jump_internal
	l.nop			# nop delay slot
.L217:
	l.lwz   	r3,-60(r2)	 # SI load
	l.ori   	r4,r3,0	 # move reg to reg
	l.lwz   	r3,-24(r2)	 # SI load
	l.add   	r3,r3,r4 # addsi3
	l.lbz   	r3,0(r3)	 # zero_extendqisi2
	l.ori   	r4,r3,0	 # move reg to reg
	l.lwz   	r3,-28(r2)	 # SI load
	l.sfles 	r4,r3 # cmpsi_le
	l.bf	.L255
	l.nop			# nop delay slot
	l.lwz   	r3,-56(r2)	 # SI load
	l.ori   	r4,r3,0	 # move reg to reg
	l.lwz   	r3,-24(r2)	 # SI load
	l.add   	r3,r3,r4 # addsi3
	l.lbz   	r3,0(r3)	 # zero_extendqisi2
	l.ori   	r4,r3,0	 # move reg to reg
	l.lwz   	r3,-28(r2)	 # SI load
	l.sfles 	r4,r3 # cmpsi_le
	l.bf	.L991
	l.nop			# nop delay slot
	l.lwz   	r3,-52(r2)	 # SI load
	l.ori   	r4,r3,0	 # move reg to reg
	l.lwz   	r3,-24(r2)	 # SI load
	l.add   	r3,r3,r4 # addsi3
	l.lbz   	r3,0(r3)	 # zero_extendqisi2
	l.ori   	r4,r3,0	 # move reg to reg
	l.lwz   	r3,-28(r2)	 # SI load
	l.sfles 	r4,r3 # cmpsi_le
	l.bf	.L992
	l.nop			# nop delay slot
	l.lwz   	r3,-48(r2)	 # SI load
	l.ori   	r4,r3,0	 # move reg to reg
	l.lwz   	r3,-24(r2)	 # SI load
	l.add   	r3,r3,r4 # addsi3
	l.lbz   	r3,0(r3)	 # zero_extendqisi2
	l.ori   	r4,r3,0	 # move reg to reg
	l.lwz   	r3,-28(r2)	 # SI load
	l.sfles 	r4,r3 # cmpsi_le
	l.bf	.L258
	l.nop			# nop delay slot
	l.lwz   	r3,-44(r2)	 # SI load
	l.ori   	r4,r3,0	 # move reg to reg
	l.lwz   	r3,-24(r2)	 # SI load
	l.add   	r3,r3,r4 # addsi3
	l.lbz   	r3,0(r3)	 # zero_extendqisi2
	l.ori   	r4,r3,0	 # move reg to reg
	l.lwz   	r3,-28(r2)	 # SI load
	l.sfles 	r4,r3 # cmpsi_le
	l.bf	.L259
	l.nop			# nop delay slot
	l.lwz   	r3,-40(r2)	 # SI load
	l.ori   	r4,r3,0	 # move reg to reg
	l.lwz   	r3,-24(r2)	 # SI load
	l.add   	r3,r3,r4 # addsi3
	l.lbz   	r3,0(r3)	 # zero_extendqisi2
	l.ori   	r4,r3,0	 # move reg to reg
	l.lwz   	r3,-28(r2)	 # SI load
	l.sfles 	r4,r3 # cmpsi_le
	l.bf	.L260
	l.nop			# nop delay slot
	l.lwz   	r3,-36(r2)	 # SI load
	l.ori   	r4,r3,0	 # move reg to reg
	l.lwz   	r3,-24(r2)	 # SI load
	l.add   	r3,r3,r4 # addsi3
	l.lbz   	r3,0(r3)	 # zero_extendqisi2
	l.ori   	r4,r3,0	 # move reg to reg
	l.lwz   	r3,-28(r2)	 # SI load
	l.sfgts 	r4,r3 # cmpsi_gt
	l.bf	.L13
	l.nop			# nop delay slot
	l.lwz   	r3,-72(r2)	 # SI load
	l.ori   	r4,r3,0	 # move reg to reg
	l.lwz   	r3,-24(r2)	 # SI load
	l.add   	r3,r3,r4 # addsi3
	l.lbz   	r3,0(r3)	 # zero_extendqisi2
	l.ori   	r4,r3,0	 # move reg to reg
	l.lwz   	r3,-28(r2)	 # SI load
	l.sfles 	r4,r3 # cmpsi_le
	l.bf	.L993
	l.nop			# nop delay slot
	l.lwz   	r3,-68(r2)	 # SI load
	l.ori   	r4,r3,0	 # move reg to reg
	l.lwz   	r3,-24(r2)	 # SI load
	l.add   	r3,r3,r4 # addsi3
	l.lbz   	r3,0(r3)	 # zero_extendqisi2
	l.ori   	r4,r3,0	 # move reg to reg
	l.lwz   	r3,-28(r2)	 # SI load
	l.sfles 	r4,r3 # cmpsi_le
	l.bf	.L994
	l.nop			# nop delay slot
	l.lwz   	r3,-64(r2)	 # SI load
	l.ori   	r4,r3,0	 # move reg to reg
	l.lwz   	r3,-24(r2)	 # SI load
	l.add   	r3,r3,r4 # addsi3
	l.lbz   	r3,0(r3)	 # zero_extendqisi2
	l.ori   	r4,r3,0	 # move reg to reg
	l.lwz   	r3,-28(r2)	 # SI load
	l.sfgts 	r4,r3 # cmpsi_gt
	l.bf	.L13
	l.nop			# nop delay slot
	l.j     	.L14 # jump_internal
	l.nop			# nop delay slot
.L260:
	l.lwz   	r3,-76(r2)	 # SI load
	l.ori   	r4,r3,0	 # move reg to reg
	l.lwz   	r3,-24(r2)	 # SI load
	l.add   	r3,r3,r4 # addsi3
	l.lbz   	r3,0(r3)	 # zero_extendqisi2
	l.ori   	r4,r3,0	 # move reg to reg
	l.lwz   	r3,-28(r2)	 # SI load
	l.sfles 	r4,r3 # cmpsi_le
	l.bf	.L995
	l.nop			# nop delay slot
	l.lwz   	r3,-72(r2)	 # SI load
	l.ori   	r4,r3,0	 # move reg to reg
	l.lwz   	r3,-24(r2)	 # SI load
	l.add   	r3,r3,r4 # addsi3
	l.lbz   	r3,0(r3)	 # zero_extendqisi2
	l.ori   	r4,r3,0	 # move reg to reg
	l.lwz   	r3,-28(r2)	 # SI load
	l.sfles 	r4,r3 # cmpsi_le
	l.bf	.L996
	l.nop			# nop delay slot
	l.lwz   	r3,-68(r2)	 # SI load
	l.ori   	r4,r3,0	 # move reg to reg
	l.lwz   	r3,-24(r2)	 # SI load
	l.add   	r3,r3,r4 # addsi3
	l.lbz   	r3,0(r3)	 # zero_extendqisi2
	l.ori   	r4,r3,0	 # move reg to reg
	l.lwz   	r3,-28(r2)	 # SI load
	l.sfles 	r4,r3 # cmpsi_le
	l.bf	.L997
	l.nop			# nop delay slot
	l.lwz   	r3,-64(r2)	 # SI load
	l.ori   	r4,r3,0	 # move reg to reg
	l.lwz   	r3,-24(r2)	 # SI load
	l.add   	r3,r3,r4 # addsi3
	l.lbz   	r3,0(r3)	 # zero_extendqisi2
	l.ori   	r4,r3,0	 # move reg to reg
	l.lwz   	r3,-28(r2)	 # SI load
	l.sfgts 	r4,r3 # cmpsi_gt
	l.bf	.L13
	l.nop			# nop delay slot
	l.j     	.L14 # jump_internal
	l.nop			# nop delay slot
.L259:
	l.lwz   	r3,-80(r2)	 # SI load
	l.ori   	r4,r3,0	 # move reg to reg
	l.lwz   	r3,-24(r2)	 # SI load
	l.add   	r3,r3,r4 # addsi3
	l.lbz   	r3,0(r3)	 # zero_extendqisi2
	l.ori   	r4,r3,0	 # move reg to reg
	l.lwz   	r3,-28(r2)	 # SI load
	l.sfles 	r4,r3 # cmpsi_le
	l.bf	.L998
	l.nop			# nop delay slot
	l.lwz   	r3,-76(r2)	 # SI load
	l.ori   	r4,r3,0	 # move reg to reg
	l.lwz   	r3,-24(r2)	 # SI load
	l.add   	r3,r3,r4 # addsi3
	l.lbz   	r3,0(r3)	 # zero_extendqisi2
	l.ori   	r4,r3,0	 # move reg to reg
	l.lwz   	r3,-28(r2)	 # SI load
	l.sfles 	r4,r3 # cmpsi_le
	l.bf	.L999
	l.nop			# nop delay slot
	l.lwz   	r3,-72(r2)	 # SI load
	l.ori   	r4,r3,0	 # move reg to reg
	l.lwz   	r3,-24(r2)	 # SI load
	l.add   	r3,r3,r4 # addsi3
	l.lbz   	r3,0(r3)	 # zero_extendqisi2
	l.ori   	r4,r3,0	 # move reg to reg
	l.lwz   	r3,-28(r2)	 # SI load
	l.sfles 	r4,r3 # cmpsi_le
	l.bf	.L1000
	l.nop			# nop delay slot
	l.lwz   	r3,-68(r2)	 # SI load
	l.ori   	r4,r3,0	 # move reg to reg
	l.lwz   	r3,-24(r2)	 # SI load
	l.add   	r3,r3,r4 # addsi3
	l.lbz   	r3,0(r3)	 # zero_extendqisi2
	l.ori   	r4,r3,0	 # move reg to reg
	l.lwz   	r3,-28(r2)	 # SI load
	l.sfles 	r4,r3 # cmpsi_le
	l.bf	.L1001
	l.nop			# nop delay slot
	l.lwz   	r3,-64(r2)	 # SI load
	l.ori   	r4,r3,0	 # move reg to reg
	l.lwz   	r3,-24(r2)	 # SI load
	l.add   	r3,r3,r4 # addsi3
	l.lbz   	r3,0(r3)	 # zero_extendqisi2
	l.ori   	r4,r3,0	 # move reg to reg
	l.lwz   	r3,-28(r2)	 # SI load
	l.sfgts 	r4,r3 # cmpsi_gt
	l.bf	.L13
	l.nop			# nop delay slot
	l.j     	.L14 # jump_internal
	l.nop			# nop delay slot
.L258:
	l.lwz   	r3,-84(r2)	 # SI load
	l.ori   	r4,r3,0	 # move reg to reg
	l.lwz   	r3,-24(r2)	 # SI load
	l.add   	r3,r3,r4 # addsi3
	l.lbz   	r3,0(r3)	 # zero_extendqisi2
	l.ori   	r4,r3,0	 # move reg to reg
	l.lwz   	r3,-28(r2)	 # SI load
	l.sfles 	r4,r3 # cmpsi_le
	l.bf	.L1002
	l.nop			# nop delay slot
	l.lwz   	r3,-80(r2)	 # SI load
	l.ori   	r4,r3,0	 # move reg to reg
	l.lwz   	r3,-24(r2)	 # SI load
	l.add   	r3,r3,r4 # addsi3
	l.lbz   	r3,0(r3)	 # zero_extendqisi2
	l.ori   	r4,r3,0	 # move reg to reg
	l.lwz   	r3,-28(r2)	 # SI load
	l.sfles 	r4,r3 # cmpsi_le
	l.bf	.L1003
	l.nop			# nop delay slot
	l.lwz   	r3,-76(r2)	 # SI load
	l.ori   	r4,r3,0	 # move reg to reg
	l.lwz   	r3,-24(r2)	 # SI load
	l.add   	r3,r3,r4 # addsi3
	l.lbz   	r3,0(r3)	 # zero_extendqisi2
	l.ori   	r4,r3,0	 # move reg to reg
	l.lwz   	r3,-28(r2)	 # SI load
	l.sfles 	r4,r3 # cmpsi_le
	l.bf	.L1004
	l.nop			# nop delay slot
	l.lwz   	r3,-72(r2)	 # SI load
	l.ori   	r4,r3,0	 # move reg to reg
	l.lwz   	r3,-24(r2)	 # SI load
	l.add   	r3,r3,r4 # addsi3
	l.lbz   	r3,0(r3)	 # zero_extendqisi2
	l.ori   	r4,r3,0	 # move reg to reg
	l.lwz   	r3,-28(r2)	 # SI load
	l.sfles 	r4,r3 # cmpsi_le
	l.bf	.L1005
	l.nop			# nop delay slot
	l.lwz   	r3,-68(r2)	 # SI load
	l.ori   	r4,r3,0	 # move reg to reg
	l.lwz   	r3,-24(r2)	 # SI load
	l.add   	r3,r3,r4 # addsi3
	l.lbz   	r3,0(r3)	 # zero_extendqisi2
	l.ori   	r4,r3,0	 # move reg to reg
	l.lwz   	r3,-28(r2)	 # SI load
	l.sfles 	r4,r3 # cmpsi_le
	l.bf	.L1006
	l.nop			# nop delay slot
	l.lwz   	r3,-64(r2)	 # SI load
	l.ori   	r4,r3,0	 # move reg to reg
	l.lwz   	r3,-24(r2)	 # SI load
	l.add   	r3,r3,r4 # addsi3
	l.lbz   	r3,0(r3)	 # zero_extendqisi2
	l.ori   	r4,r3,0	 # move reg to reg
	l.lwz   	r3,-28(r2)	 # SI load
	l.sfgts 	r4,r3 # cmpsi_gt
	l.bf	.L13
	l.nop			# nop delay slot
	l.j     	.L14 # jump_internal
	l.nop			# nop delay slot
.L255:
	l.lwz   	r3,-60(r2)	 # SI load
	l.ori   	r4,r3,0	 # move reg to reg
	l.lwz   	r3,-24(r2)	 # SI load
	l.add   	r3,r3,r4 # addsi3
	l.lbz   	r3,0(r3)	 # zero_extendqisi2
	l.ori   	r4,r3,0	 # move reg to reg
	l.lwz   	r3,-32(r2)	 # SI load
	l.sfges 	r4,r3 # cmpsi_ge
	l.bf	.L1007
	l.nop			# nop delay slot
	l.lwz   	r3,-68(r2)	 # SI load
	l.ori   	r4,r3,0	 # move reg to reg
	l.lwz   	r3,-24(r2)	 # SI load
	l.add   	r3,r3,r4 # addsi3
	l.lbz   	r3,0(r3)	 # zero_extendqisi2
	l.ori   	r4,r3,0	 # move reg to reg
	l.lwz   	r3,-32(r2)	 # SI load
	l.sfges 	r4,r3 # cmpsi_ge
	l.bf	.L1008
	l.nop			# nop delay slot
	l.lwz   	r3,-64(r2)	 # SI load
	l.ori   	r4,r3,0	 # move reg to reg
	l.lwz   	r3,-24(r2)	 # SI load
	l.add   	r3,r3,r4 # addsi3
	l.lbz   	r3,0(r3)	 # zero_extendqisi2
	l.ori   	r4,r3,0	 # move reg to reg
	l.lwz   	r3,-32(r2)	 # SI load
	l.sfges 	r4,r3 # cmpsi_ge
	l.bf	.L1009
	l.nop			# nop delay slot
	l.lwz   	r3,-56(r2)	 # SI load
	l.ori   	r4,r3,0	 # move reg to reg
	l.lwz   	r3,-24(r2)	 # SI load
	l.add   	r3,r3,r4 # addsi3
	l.lbz   	r3,0(r3)	 # zero_extendqisi2
	l.ori   	r4,r3,0	 # move reg to reg
	l.lwz   	r3,-32(r2)	 # SI load
	l.sfges 	r4,r3 # cmpsi_ge
	l.bf	.L1010
	l.nop			# nop delay slot
	l.lwz   	r3,-52(r2)	 # SI load
	l.ori   	r4,r3,0	 # move reg to reg
	l.lwz   	r3,-24(r2)	 # SI load
	l.add   	r3,r3,r4 # addsi3
	l.lbz   	r3,0(r3)	 # zero_extendqisi2
	l.ori   	r4,r3,0	 # move reg to reg
	l.lwz   	r3,-32(r2)	 # SI load
	l.sfges 	r4,r3 # cmpsi_ge
	l.bf	.L1011
	l.nop			# nop delay slot
	l.lwz   	r3,-72(r2)	 # SI load
	l.ori   	r4,r3,0	 # move reg to reg
	l.lwz   	r3,-24(r2)	 # SI load
	l.add   	r3,r3,r4 # addsi3
	l.lbz   	r3,0(r3)	 # zero_extendqisi2
	l.ori   	r4,r3,0	 # move reg to reg
	l.lwz   	r3,-32(r2)	 # SI load
	l.sfges 	r4,r3 # cmpsi_ge
	l.bf	.L280
	l.nop			# nop delay slot
	l.lwz   	r3,-76(r2)	 # SI load
	l.ori   	r4,r3,0	 # move reg to reg
	l.lwz   	r3,-24(r2)	 # SI load
	l.add   	r3,r3,r4 # addsi3
	l.lbz   	r3,0(r3)	 # zero_extendqisi2
	l.ori   	r4,r3,0	 # move reg to reg
	l.lwz   	r3,-32(r2)	 # SI load
	l.sfges 	r4,r3 # cmpsi_ge
	l.bf	.L281
	l.nop			# nop delay slot
	l.lwz   	r3,-80(r2)	 # SI load
	l.ori   	r4,r3,0	 # move reg to reg
	l.lwz   	r3,-24(r2)	 # SI load
	l.add   	r3,r3,r4 # addsi3
	l.lbz   	r3,0(r3)	 # zero_extendqisi2
	l.ori   	r4,r3,0	 # move reg to reg
	l.lwz   	r3,-32(r2)	 # SI load
	l.sfges 	r4,r3 # cmpsi_ge
	l.bf	.L282
	l.nop			# nop delay slot
	l.lwz   	r3,-84(r2)	 # SI load
	l.ori   	r4,r3,0	 # move reg to reg
	l.lwz   	r3,-24(r2)	 # SI load
	l.add   	r3,r3,r4 # addsi3
	l.lbz   	r3,0(r3)	 # zero_extendqisi2
	l.ori   	r4,r3,0	 # move reg to reg
	l.lwz   	r3,-32(r2)	 # SI load
	l.sflts 	r4,r3 # cmpsi_lt
	l.bf	.L13
	l.nop			# nop delay slot
	l.lwz   	r3,-48(r2)	 # SI load
	l.ori   	r4,r3,0	 # move reg to reg
	l.lwz   	r3,-24(r2)	 # SI load
	l.add   	r3,r3,r4 # addsi3
	l.lbz   	r3,0(r3)	 # zero_extendqisi2
	l.ori   	r4,r3,0	 # move reg to reg
	l.lwz   	r3,-32(r2)	 # SI load
	l.sflts 	r4,r3 # cmpsi_lt
	l.bf	.L13
	l.nop			# nop delay slot
	l.j     	.L14 # jump_internal
	l.nop			# nop delay slot
.L282:
	l.lwz   	r3,-48(r2)	 # SI load
	l.ori   	r4,r3,0	 # move reg to reg
	l.lwz   	r3,-24(r2)	 # SI load
	l.add   	r3,r3,r4 # addsi3
	l.lbz   	r3,0(r3)	 # zero_extendqisi2
	l.ori   	r4,r3,0	 # move reg to reg
	l.lwz   	r3,-32(r2)	 # SI load
	l.sfges 	r4,r3 # cmpsi_ge
	l.bf	.L1012
	l.nop			# nop delay slot
	l.lwz   	r3,-44(r2)	 # SI load
	l.ori   	r4,r3,0	 # move reg to reg
	l.lwz   	r3,-24(r2)	 # SI load
	l.add   	r3,r3,r4 # addsi3
	l.lbz   	r3,0(r3)	 # zero_extendqisi2
	l.ori   	r4,r3,0	 # move reg to reg
	l.lwz   	r3,-32(r2)	 # SI load
	l.sflts 	r4,r3 # cmpsi_lt
	l.bf	.L13
	l.nop			# nop delay slot
	l.j     	.L14 # jump_internal
	l.nop			# nop delay slot
.L281:
	l.lwz   	r3,-48(r2)	 # SI load
	l.ori   	r4,r3,0	 # move reg to reg
	l.lwz   	r3,-24(r2)	 # SI load
	l.add   	r3,r3,r4 # addsi3
	l.lbz   	r3,0(r3)	 # zero_extendqisi2
	l.ori   	r4,r3,0	 # move reg to reg
	l.lwz   	r3,-32(r2)	 # SI load
	l.sfges 	r4,r3 # cmpsi_ge
	l.bf	.L1013
	l.nop			# nop delay slot
	l.lwz   	r3,-44(r2)	 # SI load
	l.ori   	r4,r3,0	 # move reg to reg
	l.lwz   	r3,-24(r2)	 # SI load
	l.add   	r3,r3,r4 # addsi3
	l.lbz   	r3,0(r3)	 # zero_extendqisi2
	l.ori   	r4,r3,0	 # move reg to reg
	l.lwz   	r3,-32(r2)	 # SI load
	l.sfges 	r4,r3 # cmpsi_ge
	l.bf	.L1014
	l.nop			# nop delay slot
	l.lwz   	r3,-40(r2)	 # SI load
	l.ori   	r4,r3,0	 # move reg to reg
	l.lwz   	r3,-24(r2)	 # SI load
	l.add   	r3,r3,r4 # addsi3
	l.lbz   	r3,0(r3)	 # zero_extendqisi2
	l.ori   	r4,r3,0	 # move reg to reg
	l.lwz   	r3,-32(r2)	 # SI load
	l.sflts 	r4,r3 # cmpsi_lt
	l.bf	.L13
	l.nop			# nop delay slot
	l.j     	.L14 # jump_internal
	l.nop			# nop delay slot
.L280:
	l.lwz   	r3,-48(r2)	 # SI load
	l.ori   	r4,r3,0	 # move reg to reg
	l.lwz   	r3,-24(r2)	 # SI load
	l.add   	r3,r3,r4 # addsi3
	l.lbz   	r3,0(r3)	 # zero_extendqisi2
	l.ori   	r4,r3,0	 # move reg to reg
	l.lwz   	r3,-32(r2)	 # SI load
	l.sfges 	r4,r3 # cmpsi_ge
	l.bf	.L1015
	l.nop			# nop delay slot
	l.lwz   	r3,-44(r2)	 # SI load
	l.ori   	r4,r3,0	 # move reg to reg
	l.lwz   	r3,-24(r2)	 # SI load
	l.add   	r3,r3,r4 # addsi3
	l.lbz   	r3,0(r3)	 # zero_extendqisi2
	l.ori   	r4,r3,0	 # move reg to reg
	l.lwz   	r3,-32(r2)	 # SI load
	l.sfges 	r4,r3 # cmpsi_ge
	l.bf	.L1016
	l.nop			# nop delay slot
	l.lwz   	r3,-40(r2)	 # SI load
	l.ori   	r4,r3,0	 # move reg to reg
	l.lwz   	r3,-24(r2)	 # SI load
	l.add   	r3,r3,r4 # addsi3
	l.lbz   	r3,0(r3)	 # zero_extendqisi2
	l.ori   	r4,r3,0	 # move reg to reg
	l.lwz   	r3,-32(r2)	 # SI load
	l.sfges 	r4,r3 # cmpsi_ge
	l.bf	.L1017
	l.nop			# nop delay slot
	l.lwz   	r3,-36(r2)	 # SI load
	l.ori   	r4,r3,0	 # move reg to reg
	l.lwz   	r3,-24(r2)	 # SI load
	l.add   	r3,r3,r4 # addsi3
	l.lbz   	r3,0(r3)	 # zero_extendqisi2
	l.ori   	r4,r3,0	 # move reg to reg
	l.lwz   	r3,-32(r2)	 # SI load
	l.sflts 	r4,r3 # cmpsi_lt
	l.bf	.L13
	l.nop			# nop delay slot
	l.j     	.L14 # jump_internal
	l.nop			# nop delay slot
.L6:
	l.lwz   	r3,-92(r2)	 # SI load
	l.ori   	r4,r3,0	 # move reg to reg
	l.lwz   	r3,-24(r2)	 # SI load
	l.add   	r3,r3,r4 # addsi3
	l.lbz   	r3,0(r3)	 # zero_extendqisi2
	l.ori   	r4,r3,0	 # move reg to reg
	l.lwz   	r3,-32(r2)	 # SI load
	l.sfges 	r4,r3 # cmpsi_ge
	l.bf	.L289
	l.nop			# nop delay slot
	l.lwz   	r3,-64(r2)	 # SI load
	l.ori   	r4,r3,0	 # move reg to reg
	l.lwz   	r3,-24(r2)	 # SI load
	l.add   	r3,r3,r4 # addsi3
	l.lbz   	r3,0(r3)	 # zero_extendqisi2
	l.ori   	r4,r3,0	 # move reg to reg
	l.lwz   	r3,-28(r2)	 # SI load
	l.sfles 	r4,r3 # cmpsi_le
	l.bf	.L290
	l.nop			# nop delay slot
	l.lwz   	r3,-60(r2)	 # SI load
	l.ori   	r4,r3,0	 # move reg to reg
	l.lwz   	r3,-24(r2)	 # SI load
	l.add   	r3,r3,r4 # addsi3
	l.lbz   	r3,0(r3)	 # zero_extendqisi2
	l.ori   	r4,r3,0	 # move reg to reg
	l.lwz   	r3,-28(r2)	 # SI load
	l.sfles 	r4,r3 # cmpsi_le
	l.bf	.L1018
	l.nop			# nop delay slot
	l.lwz   	r3,-56(r2)	 # SI load
	l.ori   	r4,r3,0	 # move reg to reg
	l.lwz   	r3,-24(r2)	 # SI load
	l.add   	r3,r3,r4 # addsi3
	l.lbz   	r3,0(r3)	 # zero_extendqisi2
	l.ori   	r4,r3,0	 # move reg to reg
	l.lwz   	r3,-28(r2)	 # SI load
	l.sfles 	r4,r3 # cmpsi_le
	l.bf	.L1019
	l.nop			# nop delay slot
	l.lwz   	r3,-52(r2)	 # SI load
	l.ori   	r4,r3,0	 # move reg to reg
	l.lwz   	r3,-24(r2)	 # SI load
	l.add   	r3,r3,r4 # addsi3
	l.lbz   	r3,0(r3)	 # zero_extendqisi2
	l.ori   	r4,r3,0	 # move reg to reg
	l.lwz   	r3,-28(r2)	 # SI load
	l.sfles 	r4,r3 # cmpsi_le
	l.bf	.L293
	l.nop			# nop delay slot
	l.lwz   	r3,-48(r2)	 # SI load
	l.ori   	r4,r3,0	 # move reg to reg
	l.lwz   	r3,-24(r2)	 # SI load
	l.add   	r3,r3,r4 # addsi3
	l.lbz   	r3,0(r3)	 # zero_extendqisi2
	l.ori   	r4,r3,0	 # move reg to reg
	l.lwz   	r3,-28(r2)	 # SI load
	l.sfles 	r4,r3 # cmpsi_le
	l.bf	.L294
	l.nop			# nop delay slot
	l.lwz   	r3,-44(r2)	 # SI load
	l.ori   	r4,r3,0	 # move reg to reg
	l.lwz   	r3,-24(r2)	 # SI load
	l.add   	r3,r3,r4 # addsi3
	l.lbz   	r3,0(r3)	 # zero_extendqisi2
	l.ori   	r4,r3,0	 # move reg to reg
	l.lwz   	r3,-28(r2)	 # SI load
	l.sfles 	r4,r3 # cmpsi_le
	l.bf	.L295
	l.nop			# nop delay slot
	l.lwz   	r3,-40(r2)	 # SI load
	l.ori   	r4,r3,0	 # move reg to reg
	l.lwz   	r3,-24(r2)	 # SI load
	l.add   	r3,r3,r4 # addsi3
	l.lbz   	r3,0(r3)	 # zero_extendqisi2
	l.ori   	r4,r3,0	 # move reg to reg
	l.lwz   	r3,-28(r2)	 # SI load
	l.sfles 	r4,r3 # cmpsi_le
	l.bf	.L296
	l.nop			# nop delay slot
	l.lwz   	r3,-36(r2)	 # SI load
	l.ori   	r4,r3,0	 # move reg to reg
	l.lwz   	r3,-24(r2)	 # SI load
	l.add   	r3,r3,r4 # addsi3
	l.lbz   	r3,0(r3)	 # zero_extendqisi2
	l.ori   	r4,r3,0	 # move reg to reg
	l.lwz   	r3,-28(r2)	 # SI load
	l.sfgts 	r4,r3 # cmpsi_gt
	l.bf	.L13
	l.nop			# nop delay slot
	l.lwz   	r3,-72(r2)	 # SI load
	l.ori   	r4,r3,0	 # move reg to reg
	l.lwz   	r3,-24(r2)	 # SI load
	l.add   	r3,r3,r4 # addsi3
	l.lbz   	r3,0(r3)	 # zero_extendqisi2
	l.ori   	r4,r3,0	 # move reg to reg
	l.lwz   	r3,-28(r2)	 # SI load
	l.sfles 	r4,r3 # cmpsi_le
	l.bf	.L1020
	l.nop			# nop delay slot
	l.lwz   	r3,-68(r2)	 # SI load
	l.ori   	r4,r3,0	 # move reg to reg
	l.lwz   	r3,-24(r2)	 # SI load
	l.add   	r3,r3,r4 # addsi3
	l.lbz   	r3,0(r3)	 # zero_extendqisi2
	l.ori   	r4,r3,0	 # move reg to reg
	l.lwz   	r3,-28(r2)	 # SI load
	l.sfgts 	r4,r3 # cmpsi_gt
	l.bf	.L13
	l.nop			# nop delay slot
	l.j     	.L14 # jump_internal
	l.nop			# nop delay slot
.L296:
	l.lwz   	r3,-76(r2)	 # SI load
	l.ori   	r4,r3,0	 # move reg to reg
	l.lwz   	r3,-24(r2)	 # SI load
	l.add   	r3,r3,r4 # addsi3
	l.lbz   	r3,0(r3)	 # zero_extendqisi2
	l.ori   	r4,r3,0	 # move reg to reg
	l.lwz   	r3,-28(r2)	 # SI load
	l.sfles 	r4,r3 # cmpsi_le
	l.bf	.L1021
	l.nop			# nop delay slot
	l.lwz   	r3,-72(r2)	 # SI load
	l.ori   	r4,r3,0	 # move reg to reg
	l.lwz   	r3,-24(r2)	 # SI load
	l.add   	r3,r3,r4 # addsi3
	l.lbz   	r3,0(r3)	 # zero_extendqisi2
	l.ori   	r4,r3,0	 # move reg to reg
	l.lwz   	r3,-28(r2)	 # SI load
	l.sfles 	r4,r3 # cmpsi_le
	l.bf	.L1022
	l.nop			# nop delay slot
	l.lwz   	r3,-68(r2)	 # SI load
	l.ori   	r4,r3,0	 # move reg to reg
	l.lwz   	r3,-24(r2)	 # SI load
	l.add   	r3,r3,r4 # addsi3
	l.lbz   	r3,0(r3)	 # zero_extendqisi2
	l.ori   	r4,r3,0	 # move reg to reg
	l.lwz   	r3,-28(r2)	 # SI load
	l.sfgts 	r4,r3 # cmpsi_gt
	l.bf	.L13
	l.nop			# nop delay slot
	l.j     	.L14 # jump_internal
	l.nop			# nop delay slot
.L295:
	l.lwz   	r3,-80(r2)	 # SI load
	l.ori   	r4,r3,0	 # move reg to reg
	l.lwz   	r3,-24(r2)	 # SI load
	l.add   	r3,r3,r4 # addsi3
	l.lbz   	r3,0(r3)	 # zero_extendqisi2
	l.ori   	r4,r3,0	 # move reg to reg
	l.lwz   	r3,-28(r2)	 # SI load
	l.sfles 	r4,r3 # cmpsi_le
	l.bf	.L1023
	l.nop			# nop delay slot
	l.lwz   	r3,-76(r2)	 # SI load
	l.ori   	r4,r3,0	 # move reg to reg
	l.lwz   	r3,-24(r2)	 # SI load
	l.add   	r3,r3,r4 # addsi3
	l.lbz   	r3,0(r3)	 # zero_extendqisi2
	l.ori   	r4,r3,0	 # move reg to reg
	l.lwz   	r3,-28(r2)	 # SI load
	l.sfles 	r4,r3 # cmpsi_le
	l.bf	.L1024
	l.nop			# nop delay slot
	l.lwz   	r3,-72(r2)	 # SI load
	l.ori   	r4,r3,0	 # move reg to reg
	l.lwz   	r3,-24(r2)	 # SI load
	l.add   	r3,r3,r4 # addsi3
	l.lbz   	r3,0(r3)	 # zero_extendqisi2
	l.ori   	r4,r3,0	 # move reg to reg
	l.lwz   	r3,-28(r2)	 # SI load
	l.sfles 	r4,r3 # cmpsi_le
	l.bf	.L1025
	l.nop			# nop delay slot
	l.lwz   	r3,-68(r2)	 # SI load
	l.ori   	r4,r3,0	 # move reg to reg
	l.lwz   	r3,-24(r2)	 # SI load
	l.add   	r3,r3,r4 # addsi3
	l.lbz   	r3,0(r3)	 # zero_extendqisi2
	l.ori   	r4,r3,0	 # move reg to reg
	l.lwz   	r3,-28(r2)	 # SI load
	l.sfgts 	r4,r3 # cmpsi_gt
	l.bf	.L13
	l.nop			# nop delay slot
	l.j     	.L14 # jump_internal
	l.nop			# nop delay slot
.L294:
	l.lwz   	r3,-84(r2)	 # SI load
	l.ori   	r4,r3,0	 # move reg to reg
	l.lwz   	r3,-24(r2)	 # SI load
	l.add   	r3,r3,r4 # addsi3
	l.lbz   	r3,0(r3)	 # zero_extendqisi2
	l.ori   	r4,r3,0	 # move reg to reg
	l.lwz   	r3,-28(r2)	 # SI load
	l.sfles 	r4,r3 # cmpsi_le
	l.bf	.L1026
	l.nop			# nop delay slot
	l.lwz   	r3,-80(r2)	 # SI load
	l.ori   	r4,r3,0	 # move reg to reg
	l.lwz   	r3,-24(r2)	 # SI load
	l.add   	r3,r3,r4 # addsi3
	l.lbz   	r3,0(r3)	 # zero_extendqisi2
	l.ori   	r4,r3,0	 # move reg to reg
	l.lwz   	r3,-28(r2)	 # SI load
	l.sfles 	r4,r3 # cmpsi_le
	l.bf	.L1027
	l.nop			# nop delay slot
	l.lwz   	r3,-76(r2)	 # SI load
	l.ori   	r4,r3,0	 # move reg to reg
	l.lwz   	r3,-24(r2)	 # SI load
	l.add   	r3,r3,r4 # addsi3
	l.lbz   	r3,0(r3)	 # zero_extendqisi2
	l.ori   	r4,r3,0	 # move reg to reg
	l.lwz   	r3,-28(r2)	 # SI load
	l.sfles 	r4,r3 # cmpsi_le
	l.bf	.L1028
	l.nop			# nop delay slot
	l.lwz   	r3,-72(r2)	 # SI load
	l.ori   	r4,r3,0	 # move reg to reg
	l.lwz   	r3,-24(r2)	 # SI load
	l.add   	r3,r3,r4 # addsi3
	l.lbz   	r3,0(r3)	 # zero_extendqisi2
	l.ori   	r4,r3,0	 # move reg to reg
	l.lwz   	r3,-28(r2)	 # SI load
	l.sfles 	r4,r3 # cmpsi_le
	l.bf	.L1029
	l.nop			# nop delay slot
	l.lwz   	r3,-68(r2)	 # SI load
	l.ori   	r4,r3,0	 # move reg to reg
	l.lwz   	r3,-24(r2)	 # SI load
	l.add   	r3,r3,r4 # addsi3
	l.lbz   	r3,0(r3)	 # zero_extendqisi2
	l.ori   	r4,r3,0	 # move reg to reg
	l.lwz   	r3,-28(r2)	 # SI load
	l.sfgts 	r4,r3 # cmpsi_gt
	l.bf	.L13
	l.nop			# nop delay slot
	l.j     	.L14 # jump_internal
	l.nop			# nop delay slot
.L293:
	l.lwz   	r3,-88(r2)	 # SI load
	l.ori   	r4,r3,0	 # move reg to reg
	l.lwz   	r3,-24(r2)	 # SI load
	l.add   	r3,r3,r4 # addsi3
	l.lbz   	r3,0(r3)	 # zero_extendqisi2
	l.ori   	r4,r3,0	 # move reg to reg
	l.lwz   	r3,-28(r2)	 # SI load
	l.sfles 	r4,r3 # cmpsi_le
	l.bf	.L1030
	l.nop			# nop delay slot
	l.lwz   	r3,-84(r2)	 # SI load
	l.ori   	r4,r3,0	 # move reg to reg
	l.lwz   	r3,-24(r2)	 # SI load
	l.add   	r3,r3,r4 # addsi3
	l.lbz   	r3,0(r3)	 # zero_extendqisi2
	l.ori   	r4,r3,0	 # move reg to reg
	l.lwz   	r3,-28(r2)	 # SI load
	l.sfles 	r4,r3 # cmpsi_le
	l.bf	.L1031
	l.nop			# nop delay slot
	l.lwz   	r3,-80(r2)	 # SI load
	l.ori   	r4,r3,0	 # move reg to reg
	l.lwz   	r3,-24(r2)	 # SI load
	l.add   	r3,r3,r4 # addsi3
	l.lbz   	r3,0(r3)	 # zero_extendqisi2
	l.ori   	r4,r3,0	 # move reg to reg
	l.lwz   	r3,-28(r2)	 # SI load
	l.sfles 	r4,r3 # cmpsi_le
	l.bf	.L1032
	l.nop			# nop delay slot
	l.lwz   	r3,-76(r2)	 # SI load
	l.ori   	r4,r3,0	 # move reg to reg
	l.lwz   	r3,-24(r2)	 # SI load
	l.add   	r3,r3,r4 # addsi3
	l.lbz   	r3,0(r3)	 # zero_extendqisi2
	l.ori   	r4,r3,0	 # move reg to reg
	l.lwz   	r3,-28(r2)	 # SI load
	l.sfles 	r4,r3 # cmpsi_le
	l.bf	.L1033
	l.nop			# nop delay slot
	l.lwz   	r3,-72(r2)	 # SI load
	l.ori   	r4,r3,0	 # move reg to reg
	l.lwz   	r3,-24(r2)	 # SI load
	l.add   	r3,r3,r4 # addsi3
	l.lbz   	r3,0(r3)	 # zero_extendqisi2
	l.ori   	r4,r3,0	 # move reg to reg
	l.lwz   	r3,-28(r2)	 # SI load
	l.sfles 	r4,r3 # cmpsi_le
	l.bf	.L1034
	l.nop			# nop delay slot
	l.lwz   	r3,-68(r2)	 # SI load
	l.ori   	r4,r3,0	 # move reg to reg
	l.lwz   	r3,-24(r2)	 # SI load
	l.add   	r3,r3,r4 # addsi3
	l.lbz   	r3,0(r3)	 # zero_extendqisi2
	l.ori   	r4,r3,0	 # move reg to reg
	l.lwz   	r3,-28(r2)	 # SI load
	l.sfgts 	r4,r3 # cmpsi_gt
	l.bf	.L13
	l.nop			# nop delay slot
	l.j     	.L14 # jump_internal
	l.nop			# nop delay slot
.L290:
	l.lwz   	r3,-64(r2)	 # SI load
	l.ori   	r4,r3,0	 # move reg to reg
	l.lwz   	r3,-24(r2)	 # SI load
	l.add   	r3,r3,r4 # addsi3
	l.lbz   	r3,0(r3)	 # zero_extendqisi2
	l.ori   	r4,r3,0	 # move reg to reg
	l.lwz   	r3,-32(r2)	 # SI load
	l.sfges 	r4,r3 # cmpsi_ge
	l.bf	.L1035
	l.nop			# nop delay slot
	l.lwz   	r3,-68(r2)	 # SI load
	l.ori   	r4,r3,0	 # move reg to reg
	l.lwz   	r3,-24(r2)	 # SI load
	l.add   	r3,r3,r4 # addsi3
	l.lbz   	r3,0(r3)	 # zero_extendqisi2
	l.ori   	r4,r3,0	 # move reg to reg
	l.lwz   	r3,-32(r2)	 # SI load
	l.sfges 	r4,r3 # cmpsi_ge
	l.bf	.L1036
	l.nop			# nop delay slot
	l.lwz   	r3,-60(r2)	 # SI load
	l.ori   	r4,r3,0	 # move reg to reg
	l.lwz   	r3,-24(r2)	 # SI load
	l.add   	r3,r3,r4 # addsi3
	l.lbz   	r3,0(r3)	 # zero_extendqisi2
	l.ori   	r4,r3,0	 # move reg to reg
	l.lwz   	r3,-32(r2)	 # SI load
	l.sfges 	r4,r3 # cmpsi_ge
	l.bf	.L1037
	l.nop			# nop delay slot
	l.lwz   	r3,-72(r2)	 # SI load
	l.ori   	r4,r3,0	 # move reg to reg
	l.lwz   	r3,-24(r2)	 # SI load
	l.add   	r3,r3,r4 # addsi3
	l.lbz   	r3,0(r3)	 # zero_extendqisi2
	l.ori   	r4,r3,0	 # move reg to reg
	l.lwz   	r3,-32(r2)	 # SI load
	l.sfges 	r4,r3 # cmpsi_ge
	l.bf	.L315
	l.nop			# nop delay slot
	l.lwz   	r3,-76(r2)	 # SI load
	l.ori   	r4,r3,0	 # move reg to reg
	l.lwz   	r3,-24(r2)	 # SI load
	l.add   	r3,r3,r4 # addsi3
	l.lbz   	r3,0(r3)	 # zero_extendqisi2
	l.ori   	r4,r3,0	 # move reg to reg
	l.lwz   	r3,-32(r2)	 # SI load
	l.sfges 	r4,r3 # cmpsi_ge
	l.bf	.L316
	l.nop			# nop delay slot
	l.lwz   	r3,-80(r2)	 # SI load
	l.ori   	r4,r3,0	 # move reg to reg
	l.lwz   	r3,-24(r2)	 # SI load
	l.add   	r3,r3,r4 # addsi3
	l.lbz   	r3,0(r3)	 # zero_extendqisi2
	l.ori   	r4,r3,0	 # move reg to reg
	l.lwz   	r3,-32(r2)	 # SI load
	l.sfges 	r4,r3 # cmpsi_ge
	l.bf	.L317
	l.nop			# nop delay slot
	l.lwz   	r3,-84(r2)	 # SI load
	l.ori   	r4,r3,0	 # move reg to reg
	l.lwz   	r3,-24(r2)	 # SI load
	l.add   	r3,r3,r4 # addsi3
	l.lbz   	r3,0(r3)	 # zero_extendqisi2
	l.ori   	r4,r3,0	 # move reg to reg
	l.lwz   	r3,-32(r2)	 # SI load
	l.sfges 	r4,r3 # cmpsi_ge
	l.bf	.L318
	l.nop			# nop delay slot
	l.lwz   	r3,-88(r2)	 # SI load
	l.ori   	r4,r3,0	 # move reg to reg
	l.lwz   	r3,-24(r2)	 # SI load
	l.add   	r3,r3,r4 # addsi3
	l.lbz   	r3,0(r3)	 # zero_extendqisi2
	l.ori   	r4,r3,0	 # move reg to reg
	l.lwz   	r3,-32(r2)	 # SI load
	l.sflts 	r4,r3 # cmpsi_lt
	l.bf	.L13
	l.nop			# nop delay slot
	l.lwz   	r3,-56(r2)	 # SI load
	l.ori   	r4,r3,0	 # move reg to reg
	l.lwz   	r3,-24(r2)	 # SI load
	l.add   	r3,r3,r4 # addsi3
	l.lbz   	r3,0(r3)	 # zero_extendqisi2
	l.ori   	r4,r3,0	 # move reg to reg
	l.lwz   	r3,-32(r2)	 # SI load
	l.sfges 	r4,r3 # cmpsi_ge
	l.bf	.L1038
	l.nop			# nop delay slot
	l.lwz   	r3,-52(r2)	 # SI load
	l.ori   	r4,r3,0	 # move reg to reg
	l.lwz   	r3,-24(r2)	 # SI load
	l.add   	r3,r3,r4 # addsi3
	l.lbz   	r3,0(r3)	 # zero_extendqisi2
	l.ori   	r4,r3,0	 # move reg to reg
	l.lwz   	r3,-32(r2)	 # SI load
	l.sflts 	r4,r3 # cmpsi_lt
	l.bf	.L13
	l.nop			# nop delay slot
	l.j     	.L14 # jump_internal
	l.nop			# nop delay slot
.L318:
	l.lwz   	r3,-56(r2)	 # SI load
	l.ori   	r4,r3,0	 # move reg to reg
	l.lwz   	r3,-24(r2)	 # SI load
	l.add   	r3,r3,r4 # addsi3
	l.lbz   	r3,0(r3)	 # zero_extendqisi2
	l.ori   	r4,r3,0	 # move reg to reg
	l.lwz   	r3,-32(r2)	 # SI load
	l.sfges 	r4,r3 # cmpsi_ge
	l.bf	.L1039
	l.nop			# nop delay slot
	l.lwz   	r3,-52(r2)	 # SI load
	l.ori   	r4,r3,0	 # move reg to reg
	l.lwz   	r3,-24(r2)	 # SI load
	l.add   	r3,r3,r4 # addsi3
	l.lbz   	r3,0(r3)	 # zero_extendqisi2
	l.ori   	r4,r3,0	 # move reg to reg
	l.lwz   	r3,-32(r2)	 # SI load
	l.sfges 	r4,r3 # cmpsi_ge
	l.bf	.L1040
	l.nop			# nop delay slot
	l.lwz   	r3,-48(r2)	 # SI load
	l.ori   	r4,r3,0	 # move reg to reg
	l.lwz   	r3,-24(r2)	 # SI load
	l.add   	r3,r3,r4 # addsi3
	l.lbz   	r3,0(r3)	 # zero_extendqisi2
	l.ori   	r4,r3,0	 # move reg to reg
	l.lwz   	r3,-32(r2)	 # SI load
	l.sflts 	r4,r3 # cmpsi_lt
	l.bf	.L13
	l.nop			# nop delay slot
	l.j     	.L14 # jump_internal
	l.nop			# nop delay slot
.L317:
	l.lwz   	r3,-56(r2)	 # SI load
	l.ori   	r4,r3,0	 # move reg to reg
	l.lwz   	r3,-24(r2)	 # SI load
	l.add   	r3,r3,r4 # addsi3
	l.lbz   	r3,0(r3)	 # zero_extendqisi2
	l.ori   	r4,r3,0	 # move reg to reg
	l.lwz   	r3,-32(r2)	 # SI load
	l.sfges 	r4,r3 # cmpsi_ge
	l.bf	.L1041
	l.nop			# nop delay slot
	l.lwz   	r3,-52(r2)	 # SI load
	l.ori   	r4,r3,0	 # move reg to reg
	l.lwz   	r3,-24(r2)	 # SI load
	l.add   	r3,r3,r4 # addsi3
	l.lbz   	r3,0(r3)	 # zero_extendqisi2
	l.ori   	r4,r3,0	 # move reg to reg
	l.lwz   	r3,-32(r2)	 # SI load
	l.sfges 	r4,r3 # cmpsi_ge
	l.bf	.L1042
	l.nop			# nop delay slot
	l.lwz   	r3,-48(r2)	 # SI load
	l.ori   	r4,r3,0	 # move reg to reg
	l.lwz   	r3,-24(r2)	 # SI load
	l.add   	r3,r3,r4 # addsi3
	l.lbz   	r3,0(r3)	 # zero_extendqisi2
	l.ori   	r4,r3,0	 # move reg to reg
	l.lwz   	r3,-32(r2)	 # SI load
	l.sfges 	r4,r3 # cmpsi_ge
	l.bf	.L1043
	l.nop			# nop delay slot
	l.lwz   	r3,-44(r2)	 # SI load
	l.ori   	r4,r3,0	 # move reg to reg
	l.lwz   	r3,-24(r2)	 # SI load
	l.add   	r3,r3,r4 # addsi3
	l.lbz   	r3,0(r3)	 # zero_extendqisi2
	l.ori   	r4,r3,0	 # move reg to reg
	l.lwz   	r3,-32(r2)	 # SI load
	l.sflts 	r4,r3 # cmpsi_lt
	l.bf	.L13
	l.nop			# nop delay slot
	l.j     	.L14 # jump_internal
	l.nop			# nop delay slot
.L316:
	l.lwz   	r3,-56(r2)	 # SI load
	l.ori   	r4,r3,0	 # move reg to reg
	l.lwz   	r3,-24(r2)	 # SI load
	l.add   	r3,r3,r4 # addsi3
	l.lbz   	r3,0(r3)	 # zero_extendqisi2
	l.ori   	r4,r3,0	 # move reg to reg
	l.lwz   	r3,-32(r2)	 # SI load
	l.sfges 	r4,r3 # cmpsi_ge
	l.bf	.L1044
	l.nop			# nop delay slot
	l.lwz   	r3,-52(r2)	 # SI load
	l.ori   	r4,r3,0	 # move reg to reg
	l.lwz   	r3,-24(r2)	 # SI load
	l.add   	r3,r3,r4 # addsi3
	l.lbz   	r3,0(r3)	 # zero_extendqisi2
	l.ori   	r4,r3,0	 # move reg to reg
	l.lwz   	r3,-32(r2)	 # SI load
	l.sfges 	r4,r3 # cmpsi_ge
	l.bf	.L1045
	l.nop			# nop delay slot
	l.lwz   	r3,-48(r2)	 # SI load
	l.ori   	r4,r3,0	 # move reg to reg
	l.lwz   	r3,-24(r2)	 # SI load
	l.add   	r3,r3,r4 # addsi3
	l.lbz   	r3,0(r3)	 # zero_extendqisi2
	l.ori   	r4,r3,0	 # move reg to reg
	l.lwz   	r3,-32(r2)	 # SI load
	l.sfges 	r4,r3 # cmpsi_ge
	l.bf	.L1046
	l.nop			# nop delay slot
	l.lwz   	r3,-44(r2)	 # SI load
	l.ori   	r4,r3,0	 # move reg to reg
	l.lwz   	r3,-24(r2)	 # SI load
	l.add   	r3,r3,r4 # addsi3
	l.lbz   	r3,0(r3)	 # zero_extendqisi2
	l.ori   	r4,r3,0	 # move reg to reg
	l.lwz   	r3,-32(r2)	 # SI load
	l.sfges 	r4,r3 # cmpsi_ge
	l.bf	.L1047
	l.nop			# nop delay slot
	l.lwz   	r3,-40(r2)	 # SI load
	l.ori   	r4,r3,0	 # move reg to reg
	l.lwz   	r3,-24(r2)	 # SI load
	l.add   	r3,r3,r4 # addsi3
	l.lbz   	r3,0(r3)	 # zero_extendqisi2
	l.ori   	r4,r3,0	 # move reg to reg
	l.lwz   	r3,-32(r2)	 # SI load
	l.sflts 	r4,r3 # cmpsi_lt
	l.bf	.L13
	l.nop			# nop delay slot
	l.j     	.L14 # jump_internal
	l.nop			# nop delay slot
.L315:
	l.lwz   	r3,-56(r2)	 # SI load
	l.ori   	r4,r3,0	 # move reg to reg
	l.lwz   	r3,-24(r2)	 # SI load
	l.add   	r3,r3,r4 # addsi3
	l.lbz   	r3,0(r3)	 # zero_extendqisi2
	l.ori   	r4,r3,0	 # move reg to reg
	l.lwz   	r3,-32(r2)	 # SI load
	l.sfges 	r4,r3 # cmpsi_ge
	l.bf	.L1048
	l.nop			# nop delay slot
	l.lwz   	r3,-52(r2)	 # SI load
	l.ori   	r4,r3,0	 # move reg to reg
	l.lwz   	r3,-24(r2)	 # SI load
	l.add   	r3,r3,r4 # addsi3
	l.lbz   	r3,0(r3)	 # zero_extendqisi2
	l.ori   	r4,r3,0	 # move reg to reg
	l.lwz   	r3,-32(r2)	 # SI load
	l.sfges 	r4,r3 # cmpsi_ge
	l.bf	.L1049
	l.nop			# nop delay slot
	l.lwz   	r3,-48(r2)	 # SI load
	l.ori   	r4,r3,0	 # move reg to reg
	l.lwz   	r3,-24(r2)	 # SI load
	l.add   	r3,r3,r4 # addsi3
	l.lbz   	r3,0(r3)	 # zero_extendqisi2
	l.ori   	r4,r3,0	 # move reg to reg
	l.lwz   	r3,-32(r2)	 # SI load
	l.sfges 	r4,r3 # cmpsi_ge
	l.bf	.L1050
	l.nop			# nop delay slot
	l.lwz   	r3,-44(r2)	 # SI load
	l.ori   	r4,r3,0	 # move reg to reg
	l.lwz   	r3,-24(r2)	 # SI load
	l.add   	r3,r3,r4 # addsi3
	l.lbz   	r3,0(r3)	 # zero_extendqisi2
	l.ori   	r4,r3,0	 # move reg to reg
	l.lwz   	r3,-32(r2)	 # SI load
	l.sfges 	r4,r3 # cmpsi_ge
	l.bf	.L1051
	l.nop			# nop delay slot
	l.lwz   	r3,-40(r2)	 # SI load
	l.ori   	r4,r3,0	 # move reg to reg
	l.lwz   	r3,-24(r2)	 # SI load
	l.add   	r3,r3,r4 # addsi3
	l.lbz   	r3,0(r3)	 # zero_extendqisi2
	l.ori   	r4,r3,0	 # move reg to reg
	l.lwz   	r3,-32(r2)	 # SI load
	l.sfges 	r4,r3 # cmpsi_ge
	l.bf	.L1052
	l.nop			# nop delay slot
	l.lwz   	r3,-36(r2)	 # SI load
	l.ori   	r4,r3,0	 # move reg to reg
	l.lwz   	r3,-24(r2)	 # SI load
	l.add   	r3,r3,r4 # addsi3
	l.lbz   	r3,0(r3)	 # zero_extendqisi2
	l.ori   	r4,r3,0	 # move reg to reg
	l.lwz   	r3,-32(r2)	 # SI load
	l.sflts 	r4,r3 # cmpsi_lt
	l.bf	.L13
	l.nop			# nop delay slot
	l.j     	.L14 # jump_internal
	l.nop			# nop delay slot
.L289:
	l.lwz   	r3,-64(r2)	 # SI load
	l.ori   	r4,r3,0	 # move reg to reg
	l.lwz   	r3,-24(r2)	 # SI load
	l.add   	r3,r3,r4 # addsi3
	l.lbz   	r3,0(r3)	 # zero_extendqisi2
	l.ori   	r4,r3,0	 # move reg to reg
	l.lwz   	r3,-28(r2)	 # SI load
	l.sfles 	r4,r3 # cmpsi_le
	l.bf	.L334
	l.nop			# nop delay slot
	l.lwz   	r3,-60(r2)	 # SI load
	l.ori   	r4,r3,0	 # move reg to reg
	l.lwz   	r3,-24(r2)	 # SI load
	l.add   	r3,r3,r4 # addsi3
	l.lbz   	r3,0(r3)	 # zero_extendqisi2
	l.ori   	r4,r3,0	 # move reg to reg
	l.lwz   	r3,-28(r2)	 # SI load
	l.sfles 	r4,r3 # cmpsi_le
	l.bf	.L1053
	l.nop			# nop delay slot
	l.lwz   	r3,-56(r2)	 # SI load
	l.ori   	r4,r3,0	 # move reg to reg
	l.lwz   	r3,-24(r2)	 # SI load
	l.add   	r3,r3,r4 # addsi3
	l.lbz   	r3,0(r3)	 # zero_extendqisi2
	l.ori   	r4,r3,0	 # move reg to reg
	l.lwz   	r3,-28(r2)	 # SI load
	l.sfles 	r4,r3 # cmpsi_le
	l.bf	.L1054
	l.nop			# nop delay slot
	l.lwz   	r3,-52(r2)	 # SI load
	l.ori   	r4,r3,0	 # move reg to reg
	l.lwz   	r3,-24(r2)	 # SI load
	l.add   	r3,r3,r4 # addsi3
	l.lbz   	r3,0(r3)	 # zero_extendqisi2
	l.ori   	r4,r3,0	 # move reg to reg
	l.lwz   	r3,-28(r2)	 # SI load
	l.sfles 	r4,r3 # cmpsi_le
	l.bf	.L337
	l.nop			# nop delay slot
	l.lwz   	r3,-48(r2)	 # SI load
	l.ori   	r4,r3,0	 # move reg to reg
	l.lwz   	r3,-24(r2)	 # SI load
	l.add   	r3,r3,r4 # addsi3
	l.lbz   	r3,0(r3)	 # zero_extendqisi2
	l.ori   	r4,r3,0	 # move reg to reg
	l.lwz   	r3,-28(r2)	 # SI load
	l.sfles 	r4,r3 # cmpsi_le
	l.bf	.L338
	l.nop			# nop delay slot
	l.lwz   	r3,-44(r2)	 # SI load
	l.ori   	r4,r3,0	 # move reg to reg
	l.lwz   	r3,-24(r2)	 # SI load
	l.add   	r3,r3,r4 # addsi3
	l.lbz   	r3,0(r3)	 # zero_extendqisi2
	l.ori   	r4,r3,0	 # move reg to reg
	l.lwz   	r3,-28(r2)	 # SI load
	l.sfles 	r4,r3 # cmpsi_le
	l.bf	.L339
	l.nop			# nop delay slot
	l.lwz   	r3,-40(r2)	 # SI load
	l.ori   	r4,r3,0	 # move reg to reg
	l.lwz   	r3,-24(r2)	 # SI load
	l.add   	r3,r3,r4 # addsi3
	l.lbz   	r3,0(r3)	 # zero_extendqisi2
	l.ori   	r4,r3,0	 # move reg to reg
	l.lwz   	r3,-28(r2)	 # SI load
	l.sfles 	r4,r3 # cmpsi_le
	l.bf	.L340
	l.nop			# nop delay slot
	l.lwz   	r3,-36(r2)	 # SI load
	l.ori   	r4,r3,0	 # move reg to reg
	l.lwz   	r3,-24(r2)	 # SI load
	l.add   	r3,r3,r4 # addsi3
	l.lbz   	r3,0(r3)	 # zero_extendqisi2
	l.ori   	r4,r3,0	 # move reg to reg
	l.lwz   	r3,-28(r2)	 # SI load
	l.sfgts 	r4,r3 # cmpsi_gt
	l.bf	.L13
	l.nop			# nop delay slot
	l.lwz   	r3,-72(r2)	 # SI load
	l.ori   	r4,r3,0	 # move reg to reg
	l.lwz   	r3,-24(r2)	 # SI load
	l.add   	r3,r3,r4 # addsi3
	l.lbz   	r3,0(r3)	 # zero_extendqisi2
	l.ori   	r4,r3,0	 # move reg to reg
	l.lwz   	r3,-28(r2)	 # SI load
	l.sfles 	r4,r3 # cmpsi_le
	l.bf	.L1055
	l.nop			# nop delay slot
	l.lwz   	r3,-68(r2)	 # SI load
	l.ori   	r4,r3,0	 # move reg to reg
	l.lwz   	r3,-24(r2)	 # SI load
	l.add   	r3,r3,r4 # addsi3
	l.lbz   	r3,0(r3)	 # zero_extendqisi2
	l.ori   	r4,r3,0	 # move reg to reg
	l.lwz   	r3,-28(r2)	 # SI load
	l.sfgts 	r4,r3 # cmpsi_gt
	l.bf	.L13
	l.nop			# nop delay slot
	l.j     	.L14 # jump_internal
	l.nop			# nop delay slot
.L340:
	l.lwz   	r3,-76(r2)	 # SI load
	l.ori   	r4,r3,0	 # move reg to reg
	l.lwz   	r3,-24(r2)	 # SI load
	l.add   	r3,r3,r4 # addsi3
	l.lbz   	r3,0(r3)	 # zero_extendqisi2
	l.ori   	r4,r3,0	 # move reg to reg
	l.lwz   	r3,-28(r2)	 # SI load
	l.sfles 	r4,r3 # cmpsi_le
	l.bf	.L1056
	l.nop			# nop delay slot
	l.lwz   	r3,-72(r2)	 # SI load
	l.ori   	r4,r3,0	 # move reg to reg
	l.lwz   	r3,-24(r2)	 # SI load
	l.add   	r3,r3,r4 # addsi3
	l.lbz   	r3,0(r3)	 # zero_extendqisi2
	l.ori   	r4,r3,0	 # move reg to reg
	l.lwz   	r3,-28(r2)	 # SI load
	l.sfles 	r4,r3 # cmpsi_le
	l.bf	.L1057
	l.nop			# nop delay slot
	l.lwz   	r3,-68(r2)	 # SI load
	l.ori   	r4,r3,0	 # move reg to reg
	l.lwz   	r3,-24(r2)	 # SI load
	l.add   	r3,r3,r4 # addsi3
	l.lbz   	r3,0(r3)	 # zero_extendqisi2
	l.ori   	r4,r3,0	 # move reg to reg
	l.lwz   	r3,-28(r2)	 # SI load
	l.sfgts 	r4,r3 # cmpsi_gt
	l.bf	.L13
	l.nop			# nop delay slot
	l.j     	.L14 # jump_internal
	l.nop			# nop delay slot
.L339:
	l.lwz   	r3,-80(r2)	 # SI load
	l.ori   	r4,r3,0	 # move reg to reg
	l.lwz   	r3,-24(r2)	 # SI load
	l.add   	r3,r3,r4 # addsi3
	l.lbz   	r3,0(r3)	 # zero_extendqisi2
	l.ori   	r4,r3,0	 # move reg to reg
	l.lwz   	r3,-28(r2)	 # SI load
	l.sfles 	r4,r3 # cmpsi_le
	l.bf	.L1058
	l.nop			# nop delay slot
	l.lwz   	r3,-76(r2)	 # SI load
	l.ori   	r4,r3,0	 # move reg to reg
	l.lwz   	r3,-24(r2)	 # SI load
	l.add   	r3,r3,r4 # addsi3
	l.lbz   	r3,0(r3)	 # zero_extendqisi2
	l.ori   	r4,r3,0	 # move reg to reg
	l.lwz   	r3,-28(r2)	 # SI load
	l.sfles 	r4,r3 # cmpsi_le
	l.bf	.L1059
	l.nop			# nop delay slot
	l.lwz   	r3,-72(r2)	 # SI load
	l.ori   	r4,r3,0	 # move reg to reg
	l.lwz   	r3,-24(r2)	 # SI load
	l.add   	r3,r3,r4 # addsi3
	l.lbz   	r3,0(r3)	 # zero_extendqisi2
	l.ori   	r4,r3,0	 # move reg to reg
	l.lwz   	r3,-28(r2)	 # SI load
	l.sfles 	r4,r3 # cmpsi_le
	l.bf	.L1060
	l.nop			# nop delay slot
	l.lwz   	r3,-68(r2)	 # SI load
	l.ori   	r4,r3,0	 # move reg to reg
	l.lwz   	r3,-24(r2)	 # SI load
	l.add   	r3,r3,r4 # addsi3
	l.lbz   	r3,0(r3)	 # zero_extendqisi2
	l.ori   	r4,r3,0	 # move reg to reg
	l.lwz   	r3,-28(r2)	 # SI load
	l.sfgts 	r4,r3 # cmpsi_gt
	l.bf	.L13
	l.nop			# nop delay slot
	l.j     	.L14 # jump_internal
	l.nop			# nop delay slot
.L338:
	l.lwz   	r3,-84(r2)	 # SI load
	l.ori   	r4,r3,0	 # move reg to reg
	l.lwz   	r3,-24(r2)	 # SI load
	l.add   	r3,r3,r4 # addsi3
	l.lbz   	r3,0(r3)	 # zero_extendqisi2
	l.ori   	r4,r3,0	 # move reg to reg
	l.lwz   	r3,-28(r2)	 # SI load
	l.sfles 	r4,r3 # cmpsi_le
	l.bf	.L1061
	l.nop			# nop delay slot
	l.lwz   	r3,-80(r2)	 # SI load
	l.ori   	r4,r3,0	 # move reg to reg
	l.lwz   	r3,-24(r2)	 # SI load
	l.add   	r3,r3,r4 # addsi3
	l.lbz   	r3,0(r3)	 # zero_extendqisi2
	l.ori   	r4,r3,0	 # move reg to reg
	l.lwz   	r3,-28(r2)	 # SI load
	l.sfles 	r4,r3 # cmpsi_le
	l.bf	.L1062
	l.nop			# nop delay slot
	l.lwz   	r3,-76(r2)	 # SI load
	l.ori   	r4,r3,0	 # move reg to reg
	l.lwz   	r3,-24(r2)	 # SI load
	l.add   	r3,r3,r4 # addsi3
	l.lbz   	r3,0(r3)	 # zero_extendqisi2
	l.ori   	r4,r3,0	 # move reg to reg
	l.lwz   	r3,-28(r2)	 # SI load
	l.sfles 	r4,r3 # cmpsi_le
	l.bf	.L1063
	l.nop			# nop delay slot
	l.lwz   	r3,-72(r2)	 # SI load
	l.ori   	r4,r3,0	 # move reg to reg
	l.lwz   	r3,-24(r2)	 # SI load
	l.add   	r3,r3,r4 # addsi3
	l.lbz   	r3,0(r3)	 # zero_extendqisi2
	l.ori   	r4,r3,0	 # move reg to reg
	l.lwz   	r3,-28(r2)	 # SI load
	l.sfles 	r4,r3 # cmpsi_le
	l.bf	.L1064
	l.nop			# nop delay slot
	l.lwz   	r3,-68(r2)	 # SI load
	l.ori   	r4,r3,0	 # move reg to reg
	l.lwz   	r3,-24(r2)	 # SI load
	l.add   	r3,r3,r4 # addsi3
	l.lbz   	r3,0(r3)	 # zero_extendqisi2
	l.ori   	r4,r3,0	 # move reg to reg
	l.lwz   	r3,-28(r2)	 # SI load
	l.sfgts 	r4,r3 # cmpsi_gt
	l.bf	.L13
	l.nop			# nop delay slot
	l.j     	.L14 # jump_internal
	l.nop			# nop delay slot
.L337:
	l.lwz   	r3,-88(r2)	 # SI load
	l.ori   	r4,r3,0	 # move reg to reg
	l.lwz   	r3,-24(r2)	 # SI load
	l.add   	r3,r3,r4 # addsi3
	l.lbz   	r3,0(r3)	 # zero_extendqisi2
	l.ori   	r4,r3,0	 # move reg to reg
	l.lwz   	r3,-28(r2)	 # SI load
	l.sfles 	r4,r3 # cmpsi_le
	l.bf	.L1065
	l.nop			# nop delay slot
	l.lwz   	r3,-84(r2)	 # SI load
	l.ori   	r4,r3,0	 # move reg to reg
	l.lwz   	r3,-24(r2)	 # SI load
	l.add   	r3,r3,r4 # addsi3
	l.lbz   	r3,0(r3)	 # zero_extendqisi2
	l.ori   	r4,r3,0	 # move reg to reg
	l.lwz   	r3,-28(r2)	 # SI load
	l.sfles 	r4,r3 # cmpsi_le
	l.bf	.L1066
	l.nop			# nop delay slot
	l.lwz   	r3,-80(r2)	 # SI load
	l.ori   	r4,r3,0	 # move reg to reg
	l.lwz   	r3,-24(r2)	 # SI load
	l.add   	r3,r3,r4 # addsi3
	l.lbz   	r3,0(r3)	 # zero_extendqisi2
	l.ori   	r4,r3,0	 # move reg to reg
	l.lwz   	r3,-28(r2)	 # SI load
	l.sfles 	r4,r3 # cmpsi_le
	l.bf	.L1067
	l.nop			# nop delay slot
	l.lwz   	r3,-76(r2)	 # SI load
	l.ori   	r4,r3,0	 # move reg to reg
	l.lwz   	r3,-24(r2)	 # SI load
	l.add   	r3,r3,r4 # addsi3
	l.lbz   	r3,0(r3)	 # zero_extendqisi2
	l.ori   	r4,r3,0	 # move reg to reg
	l.lwz   	r3,-28(r2)	 # SI load
	l.sfles 	r4,r3 # cmpsi_le
	l.bf	.L1068
	l.nop			# nop delay slot
	l.lwz   	r3,-72(r2)	 # SI load
	l.ori   	r4,r3,0	 # move reg to reg
	l.lwz   	r3,-24(r2)	 # SI load
	l.add   	r3,r3,r4 # addsi3
	l.lbz   	r3,0(r3)	 # zero_extendqisi2
	l.ori   	r4,r3,0	 # move reg to reg
	l.lwz   	r3,-28(r2)	 # SI load
	l.sfles 	r4,r3 # cmpsi_le
	l.bf	.L1069
	l.nop			# nop delay slot
	l.lwz   	r3,-68(r2)	 # SI load
	l.ori   	r4,r3,0	 # move reg to reg
	l.lwz   	r3,-24(r2)	 # SI load
	l.add   	r3,r3,r4 # addsi3
	l.lbz   	r3,0(r3)	 # zero_extendqisi2
	l.ori   	r4,r3,0	 # move reg to reg
	l.lwz   	r3,-28(r2)	 # SI load
	l.sfgts 	r4,r3 # cmpsi_gt
	l.bf	.L13
	l.nop			# nop delay slot
	l.j     	.L14 # jump_internal
	l.nop			# nop delay slot
.L334:
	l.lwz   	r3,-64(r2)	 # SI load
	l.ori   	r4,r3,0	 # move reg to reg
	l.lwz   	r3,-24(r2)	 # SI load
	l.add   	r3,r3,r4 # addsi3
	l.lbz   	r3,0(r3)	 # zero_extendqisi2
	l.ori   	r4,r3,0	 # move reg to reg
	l.lwz   	r3,-32(r2)	 # SI load
	l.sfges 	r4,r3 # cmpsi_ge
	l.bf	.L1070
	l.nop			# nop delay slot
	l.lwz   	r3,-68(r2)	 # SI load
	l.ori   	r4,r3,0	 # move reg to reg
	l.lwz   	r3,-24(r2)	 # SI load
	l.add   	r3,r3,r4 # addsi3
	l.lbz   	r3,0(r3)	 # zero_extendqisi2
	l.ori   	r4,r3,0	 # move reg to reg
	l.lwz   	r3,-32(r2)	 # SI load
	l.sfges 	r4,r3 # cmpsi_ge
	l.bf	.L1071
	l.nop			# nop delay slot
	l.lwz   	r3,-60(r2)	 # SI load
	l.ori   	r4,r3,0	 # move reg to reg
	l.lwz   	r3,-24(r2)	 # SI load
	l.add   	r3,r3,r4 # addsi3
	l.lbz   	r3,0(r3)	 # zero_extendqisi2
	l.ori   	r4,r3,0	 # move reg to reg
	l.lwz   	r3,-32(r2)	 # SI load
	l.sfges 	r4,r3 # cmpsi_ge
	l.bf	.L1072
	l.nop			# nop delay slot
	l.lwz   	r3,-56(r2)	 # SI load
	l.ori   	r4,r3,0	 # move reg to reg
	l.lwz   	r3,-24(r2)	 # SI load
	l.add   	r3,r3,r4 # addsi3
	l.lbz   	r3,0(r3)	 # zero_extendqisi2
	l.ori   	r4,r3,0	 # move reg to reg
	l.lwz   	r3,-32(r2)	 # SI load
	l.sfges 	r4,r3 # cmpsi_ge
	l.bf	.L1073
	l.nop			# nop delay slot
	l.lwz   	r3,-72(r2)	 # SI load
	l.ori   	r4,r3,0	 # move reg to reg
	l.lwz   	r3,-24(r2)	 # SI load
	l.add   	r3,r3,r4 # addsi3
	l.lbz   	r3,0(r3)	 # zero_extendqisi2
	l.ori   	r4,r3,0	 # move reg to reg
	l.lwz   	r3,-32(r2)	 # SI load
	l.sfges 	r4,r3 # cmpsi_ge
	l.bf	.L360
	l.nop			# nop delay slot
	l.lwz   	r3,-76(r2)	 # SI load
	l.ori   	r4,r3,0	 # move reg to reg
	l.lwz   	r3,-24(r2)	 # SI load
	l.add   	r3,r3,r4 # addsi3
	l.lbz   	r3,0(r3)	 # zero_extendqisi2
	l.ori   	r4,r3,0	 # move reg to reg
	l.lwz   	r3,-32(r2)	 # SI load
	l.sfges 	r4,r3 # cmpsi_ge
	l.bf	.L361
	l.nop			# nop delay slot
	l.lwz   	r3,-80(r2)	 # SI load
	l.ori   	r4,r3,0	 # move reg to reg
	l.lwz   	r3,-24(r2)	 # SI load
	l.add   	r3,r3,r4 # addsi3
	l.lbz   	r3,0(r3)	 # zero_extendqisi2
	l.ori   	r4,r3,0	 # move reg to reg
	l.lwz   	r3,-32(r2)	 # SI load
	l.sfges 	r4,r3 # cmpsi_ge
	l.bf	.L362
	l.nop			# nop delay slot
	l.lwz   	r3,-84(r2)	 # SI load
	l.ori   	r4,r3,0	 # move reg to reg
	l.lwz   	r3,-24(r2)	 # SI load
	l.add   	r3,r3,r4 # addsi3
	l.lbz   	r3,0(r3)	 # zero_extendqisi2
	l.ori   	r4,r3,0	 # move reg to reg
	l.lwz   	r3,-32(r2)	 # SI load
	l.sfges 	r4,r3 # cmpsi_ge
	l.bf	.L363
	l.nop			# nop delay slot
	l.lwz   	r3,-88(r2)	 # SI load
	l.ori   	r4,r3,0	 # move reg to reg
	l.lwz   	r3,-24(r2)	 # SI load
	l.add   	r3,r3,r4 # addsi3
	l.lbz   	r3,0(r3)	 # zero_extendqisi2
	l.ori   	r4,r3,0	 # move reg to reg
	l.lwz   	r3,-32(r2)	 # SI load
	l.sflts 	r4,r3 # cmpsi_lt
	l.bf	.L13
	l.nop			# nop delay slot
	l.lwz   	r3,-52(r2)	 # SI load
	l.ori   	r4,r3,0	 # move reg to reg
	l.lwz   	r3,-24(r2)	 # SI load
	l.add   	r3,r3,r4 # addsi3
	l.lbz   	r3,0(r3)	 # zero_extendqisi2
	l.ori   	r4,r3,0	 # move reg to reg
	l.lwz   	r3,-32(r2)	 # SI load
	l.sflts 	r4,r3 # cmpsi_lt
	l.bf	.L13
	l.nop			# nop delay slot
	l.j     	.L14 # jump_internal
	l.nop			# nop delay slot
.L363:
	l.lwz   	r3,-52(r2)	 # SI load
	l.ori   	r4,r3,0	 # move reg to reg
	l.lwz   	r3,-24(r2)	 # SI load
	l.add   	r3,r3,r4 # addsi3
	l.lbz   	r3,0(r3)	 # zero_extendqisi2
	l.ori   	r4,r3,0	 # move reg to reg
	l.lwz   	r3,-32(r2)	 # SI load
	l.sfges 	r4,r3 # cmpsi_ge
	l.bf	.L1074
	l.nop			# nop delay slot
	l.lwz   	r3,-48(r2)	 # SI load
	l.ori   	r4,r3,0	 # move reg to reg
	l.lwz   	r3,-24(r2)	 # SI load
	l.add   	r3,r3,r4 # addsi3
	l.lbz   	r3,0(r3)	 # zero_extendqisi2
	l.ori   	r4,r3,0	 # move reg to reg
	l.lwz   	r3,-32(r2)	 # SI load
	l.sflts 	r4,r3 # cmpsi_lt
	l.bf	.L13
	l.nop			# nop delay slot
	l.j     	.L14 # jump_internal
	l.nop			# nop delay slot
.L362:
	l.lwz   	r3,-52(r2)	 # SI load
	l.ori   	r4,r3,0	 # move reg to reg
	l.lwz   	r3,-24(r2)	 # SI load
	l.add   	r3,r3,r4 # addsi3
	l.lbz   	r3,0(r3)	 # zero_extendqisi2
	l.ori   	r4,r3,0	 # move reg to reg
	l.lwz   	r3,-32(r2)	 # SI load
	l.sfges 	r4,r3 # cmpsi_ge
	l.bf	.L1075
	l.nop			# nop delay slot
	l.lwz   	r3,-48(r2)	 # SI load
	l.ori   	r4,r3,0	 # move reg to reg
	l.lwz   	r3,-24(r2)	 # SI load
	l.add   	r3,r3,r4 # addsi3
	l.lbz   	r3,0(r3)	 # zero_extendqisi2
	l.ori   	r4,r3,0	 # move reg to reg
	l.lwz   	r3,-32(r2)	 # SI load
	l.sfges 	r4,r3 # cmpsi_ge
	l.bf	.L1076
	l.nop			# nop delay slot
	l.lwz   	r3,-44(r2)	 # SI load
	l.ori   	r4,r3,0	 # move reg to reg
	l.lwz   	r3,-24(r2)	 # SI load
	l.add   	r3,r3,r4 # addsi3
	l.lbz   	r3,0(r3)	 # zero_extendqisi2
	l.ori   	r4,r3,0	 # move reg to reg
	l.lwz   	r3,-32(r2)	 # SI load
	l.sflts 	r4,r3 # cmpsi_lt
	l.bf	.L13
	l.nop			# nop delay slot
	l.j     	.L14 # jump_internal
	l.nop			# nop delay slot
.L361:
	l.lwz   	r3,-52(r2)	 # SI load
	l.ori   	r4,r3,0	 # move reg to reg
	l.lwz   	r3,-24(r2)	 # SI load
	l.add   	r3,r3,r4 # addsi3
	l.lbz   	r3,0(r3)	 # zero_extendqisi2
	l.ori   	r4,r3,0	 # move reg to reg
	l.lwz   	r3,-32(r2)	 # SI load
	l.sfges 	r4,r3 # cmpsi_ge
	l.bf	.L1077
	l.nop			# nop delay slot
	l.lwz   	r3,-48(r2)	 # SI load
	l.ori   	r4,r3,0	 # move reg to reg
	l.lwz   	r3,-24(r2)	 # SI load
	l.add   	r3,r3,r4 # addsi3
	l.lbz   	r3,0(r3)	 # zero_extendqisi2
	l.ori   	r4,r3,0	 # move reg to reg
	l.lwz   	r3,-32(r2)	 # SI load
	l.sfges 	r4,r3 # cmpsi_ge
	l.bf	.L1078
	l.nop			# nop delay slot
	l.lwz   	r3,-44(r2)	 # SI load
	l.ori   	r4,r3,0	 # move reg to reg
	l.lwz   	r3,-24(r2)	 # SI load
	l.add   	r3,r3,r4 # addsi3
	l.lbz   	r3,0(r3)	 # zero_extendqisi2
	l.ori   	r4,r3,0	 # move reg to reg
	l.lwz   	r3,-32(r2)	 # SI load
	l.sfges 	r4,r3 # cmpsi_ge
	l.bf	.L1079
	l.nop			# nop delay slot
	l.lwz   	r3,-40(r2)	 # SI load
	l.ori   	r4,r3,0	 # move reg to reg
	l.lwz   	r3,-24(r2)	 # SI load
	l.add   	r3,r3,r4 # addsi3
	l.lbz   	r3,0(r3)	 # zero_extendqisi2
	l.ori   	r4,r3,0	 # move reg to reg
	l.lwz   	r3,-32(r2)	 # SI load
	l.sflts 	r4,r3 # cmpsi_lt
	l.bf	.L13
	l.nop			# nop delay slot
	l.j     	.L14 # jump_internal
	l.nop			# nop delay slot
.L360:
	l.lwz   	r3,-52(r2)	 # SI load
	l.ori   	r4,r3,0	 # move reg to reg
	l.lwz   	r3,-24(r2)	 # SI load
	l.add   	r3,r3,r4 # addsi3
	l.lbz   	r3,0(r3)	 # zero_extendqisi2
	l.ori   	r4,r3,0	 # move reg to reg
	l.lwz   	r3,-32(r2)	 # SI load
	l.sfges 	r4,r3 # cmpsi_ge
	l.bf	.L1080
	l.nop			# nop delay slot
	l.lwz   	r3,-48(r2)	 # SI load
	l.ori   	r4,r3,0	 # move reg to reg
	l.lwz   	r3,-24(r2)	 # SI load
	l.add   	r3,r3,r4 # addsi3
	l.lbz   	r3,0(r3)	 # zero_extendqisi2
	l.ori   	r4,r3,0	 # move reg to reg
	l.lwz   	r3,-32(r2)	 # SI load
	l.sfges 	r4,r3 # cmpsi_ge
	l.bf	.L1081
	l.nop			# nop delay slot
	l.lwz   	r3,-44(r2)	 # SI load
	l.ori   	r4,r3,0	 # move reg to reg
	l.lwz   	r3,-24(r2)	 # SI load
	l.add   	r3,r3,r4 # addsi3
	l.lbz   	r3,0(r3)	 # zero_extendqisi2
	l.ori   	r4,r3,0	 # move reg to reg
	l.lwz   	r3,-32(r2)	 # SI load
	l.sfges 	r4,r3 # cmpsi_ge
	l.bf	.L1082
	l.nop			# nop delay slot
	l.lwz   	r3,-40(r2)	 # SI load
	l.ori   	r4,r3,0	 # move reg to reg
	l.lwz   	r3,-24(r2)	 # SI load
	l.add   	r3,r3,r4 # addsi3
	l.lbz   	r3,0(r3)	 # zero_extendqisi2
	l.ori   	r4,r3,0	 # move reg to reg
	l.lwz   	r3,-32(r2)	 # SI load
	l.sfges 	r4,r3 # cmpsi_ge
	l.bf	.L1083
	l.nop			# nop delay slot
	l.lwz   	r3,-36(r2)	 # SI load
	l.ori   	r4,r3,0	 # move reg to reg
	l.lwz   	r3,-24(r2)	 # SI load
	l.add   	r3,r3,r4 # addsi3
	l.lbz   	r3,0(r3)	 # zero_extendqisi2
	l.ori   	r4,r3,0	 # move reg to reg
	l.lwz   	r3,-32(r2)	 # SI load
	l.sflts 	r4,r3 # cmpsi_lt
	l.bf	.L13
	l.nop			# nop delay slot
	l.j     	.L14 # jump_internal
	l.nop			# nop delay slot
.L5:
	l.lwz   	r3,-96(r2)	 # SI load
	l.ori   	r4,r3,0	 # move reg to reg
	l.lwz   	r3,-24(r2)	 # SI load
	l.add   	r3,r3,r4 # addsi3
	l.lbz   	r3,0(r3)	 # zero_extendqisi2
	l.ori   	r4,r3,0	 # move reg to reg
	l.lwz   	r3,-32(r2)	 # SI load
	l.sfges 	r4,r3 # cmpsi_ge
	l.bf	.L374
	l.nop			# nop delay slot
	l.lwz   	r3,-92(r2)	 # SI load
	l.ori   	r4,r3,0	 # move reg to reg
	l.lwz   	r3,-24(r2)	 # SI load
	l.add   	r3,r3,r4 # addsi3
	l.lbz   	r3,0(r3)	 # zero_extendqisi2
	l.ori   	r4,r3,0	 # move reg to reg
	l.lwz   	r3,-28(r2)	 # SI load
	l.sfles 	r4,r3 # cmpsi_le
	l.bf	.L375
	l.nop			# nop delay slot
	l.lwz   	r3,-64(r2)	 # SI load
	l.ori   	r4,r3,0	 # move reg to reg
	l.lwz   	r3,-24(r2)	 # SI load
	l.add   	r3,r3,r4 # addsi3
	l.lbz   	r3,0(r3)	 # zero_extendqisi2
	l.ori   	r4,r3,0	 # move reg to reg
	l.lwz   	r3,-28(r2)	 # SI load
	l.sfles 	r4,r3 # cmpsi_le
	l.bf	.L376
	l.nop			# nop delay slot
	l.lwz   	r3,-68(r2)	 # SI load
	l.ori   	r4,r3,0	 # move reg to reg
	l.lwz   	r3,-24(r2)	 # SI load
	l.add   	r3,r3,r4 # addsi3
	l.lbz   	r3,0(r3)	 # zero_extendqisi2
	l.ori   	r4,r3,0	 # move reg to reg
	l.lwz   	r3,-28(r2)	 # SI load
	l.sfles 	r4,r3 # cmpsi_le
	l.bf	.L1084
	l.nop			# nop delay slot
	l.lwz   	r3,-60(r2)	 # SI load
	l.ori   	r4,r3,0	 # move reg to reg
	l.lwz   	r3,-24(r2)	 # SI load
	l.add   	r3,r3,r4 # addsi3
	l.lbz   	r3,0(r3)	 # zero_extendqisi2
	l.ori   	r4,r3,0	 # move reg to reg
	l.lwz   	r3,-28(r2)	 # SI load
	l.sfles 	r4,r3 # cmpsi_le
	l.bf	.L1085
	l.nop			# nop delay slot
	l.lwz   	r3,-72(r2)	 # SI load
	l.ori   	r4,r3,0	 # move reg to reg
	l.lwz   	r3,-24(r2)	 # SI load
	l.add   	r3,r3,r4 # addsi3
	l.lbz   	r3,0(r3)	 # zero_extendqisi2
	l.ori   	r4,r3,0	 # move reg to reg
	l.lwz   	r3,-28(r2)	 # SI load
	l.sfles 	r4,r3 # cmpsi_le
	l.bf	.L379
	l.nop			# nop delay slot
	l.lwz   	r3,-76(r2)	 # SI load
	l.ori   	r4,r3,0	 # move reg to reg
	l.lwz   	r3,-24(r2)	 # SI load
	l.add   	r3,r3,r4 # addsi3
	l.lbz   	r3,0(r3)	 # zero_extendqisi2
	l.ori   	r4,r3,0	 # move reg to reg
	l.lwz   	r3,-28(r2)	 # SI load
	l.sfles 	r4,r3 # cmpsi_le
	l.bf	.L380
	l.nop			# nop delay slot
	l.lwz   	r3,-80(r2)	 # SI load
	l.ori   	r4,r3,0	 # move reg to reg
	l.lwz   	r3,-24(r2)	 # SI load
	l.add   	r3,r3,r4 # addsi3
	l.lbz   	r3,0(r3)	 # zero_extendqisi2
	l.ori   	r4,r3,0	 # move reg to reg
	l.lwz   	r3,-28(r2)	 # SI load
	l.sfles 	r4,r3 # cmpsi_le
	l.bf	.L381
	l.nop			# nop delay slot
	l.lwz   	r3,-84(r2)	 # SI load
	l.ori   	r4,r3,0	 # move reg to reg
	l.lwz   	r3,-24(r2)	 # SI load
	l.add   	r3,r3,r4 # addsi3
	l.lbz   	r3,0(r3)	 # zero_extendqisi2
	l.ori   	r4,r3,0	 # move reg to reg
	l.lwz   	r3,-28(r2)	 # SI load
	l.sfles 	r4,r3 # cmpsi_le
	l.bf	.L382
	l.nop			# nop delay slot
	l.lwz   	r3,-88(r2)	 # SI load
	l.ori   	r4,r3,0	 # move reg to reg
	l.lwz   	r3,-24(r2)	 # SI load
	l.add   	r3,r3,r4 # addsi3
	l.lbz   	r3,0(r3)	 # zero_extendqisi2
	l.ori   	r4,r3,0	 # move reg to reg
	l.lwz   	r3,-28(r2)	 # SI load
	l.sfgts 	r4,r3 # cmpsi_gt
	l.bf	.L13
	l.nop			# nop delay slot
	l.lwz   	r3,-56(r2)	 # SI load
	l.ori   	r4,r3,0	 # move reg to reg
	l.lwz   	r3,-24(r2)	 # SI load
	l.add   	r3,r3,r4 # addsi3
	l.lbz   	r3,0(r3)	 # zero_extendqisi2
	l.ori   	r4,r3,0	 # move reg to reg
	l.lwz   	r3,-28(r2)	 # SI load
	l.sfles 	r4,r3 # cmpsi_le
	l.bf	.L1086
	l.nop			# nop delay slot
	l.lwz   	r3,-52(r2)	 # SI load
	l.ori   	r4,r3,0	 # move reg to reg
	l.lwz   	r3,-24(r2)	 # SI load
	l.add   	r3,r3,r4 # addsi3
	l.lbz   	r3,0(r3)	 # zero_extendqisi2
	l.ori   	r4,r3,0	 # move reg to reg
	l.lwz   	r3,-28(r2)	 # SI load
	l.sfgts 	r4,r3 # cmpsi_gt
	l.bf	.L13
	l.nop			# nop delay slot
	l.j     	.L14 # jump_internal
	l.nop			# nop delay slot
.L382:
	l.lwz   	r3,-56(r2)	 # SI load
	l.ori   	r4,r3,0	 # move reg to reg
	l.lwz   	r3,-24(r2)	 # SI load
	l.add   	r3,r3,r4 # addsi3
	l.lbz   	r3,0(r3)	 # zero_extendqisi2
	l.ori   	r4,r3,0	 # move reg to reg
	l.lwz   	r3,-28(r2)	 # SI load
	l.sfles 	r4,r3 # cmpsi_le
	l.bf	.L1087
	l.nop			# nop delay slot
	l.lwz   	r3,-52(r2)	 # SI load
	l.ori   	r4,r3,0	 # move reg to reg
	l.lwz   	r3,-24(r2)	 # SI load
	l.add   	r3,r3,r4 # addsi3
	l.lbz   	r3,0(r3)	 # zero_extendqisi2
	l.ori   	r4,r3,0	 # move reg to reg
	l.lwz   	r3,-28(r2)	 # SI load
	l.sfles 	r4,r3 # cmpsi_le
	l.bf	.L1088
	l.nop			# nop delay slot
	l.lwz   	r3,-48(r2)	 # SI load
	l.ori   	r4,r3,0	 # move reg to reg
	l.lwz   	r3,-24(r2)	 # SI load
	l.add   	r3,r3,r4 # addsi3
	l.lbz   	r3,0(r3)	 # zero_extendqisi2
	l.ori   	r4,r3,0	 # move reg to reg
	l.lwz   	r3,-28(r2)	 # SI load
	l.sfgts 	r4,r3 # cmpsi_gt
	l.bf	.L13
	l.nop			# nop delay slot
	l.j     	.L14 # jump_internal
	l.nop			# nop delay slot
.L381:
	l.lwz   	r3,-56(r2)	 # SI load
	l.ori   	r4,r3,0	 # move reg to reg
	l.lwz   	r3,-24(r2)	 # SI load
	l.add   	r3,r3,r4 # addsi3
	l.lbz   	r3,0(r3)	 # zero_extendqisi2
	l.ori   	r4,r3,0	 # move reg to reg
	l.lwz   	r3,-28(r2)	 # SI load
	l.sfles 	r4,r3 # cmpsi_le
	l.bf	.L1089
	l.nop			# nop delay slot
	l.lwz   	r3,-52(r2)	 # SI load
	l.ori   	r4,r3,0	 # move reg to reg
	l.lwz   	r3,-24(r2)	 # SI load
	l.add   	r3,r3,r4 # addsi3
	l.lbz   	r3,0(r3)	 # zero_extendqisi2
	l.ori   	r4,r3,0	 # move reg to reg
	l.lwz   	r3,-28(r2)	 # SI load
	l.sfles 	r4,r3 # cmpsi_le
	l.bf	.L1090
	l.nop			# nop delay slot
	l.lwz   	r3,-48(r2)	 # SI load
	l.ori   	r4,r3,0	 # move reg to reg
	l.lwz   	r3,-24(r2)	 # SI load
	l.add   	r3,r3,r4 # addsi3
	l.lbz   	r3,0(r3)	 # zero_extendqisi2
	l.ori   	r4,r3,0	 # move reg to reg
	l.lwz   	r3,-28(r2)	 # SI load
	l.sfles 	r4,r3 # cmpsi_le
	l.bf	.L1091
	l.nop			# nop delay slot
	l.lwz   	r3,-44(r2)	 # SI load
	l.ori   	r4,r3,0	 # move reg to reg
	l.lwz   	r3,-24(r2)	 # SI load
	l.add   	r3,r3,r4 # addsi3
	l.lbz   	r3,0(r3)	 # zero_extendqisi2
	l.ori   	r4,r3,0	 # move reg to reg
	l.lwz   	r3,-28(r2)	 # SI load
	l.sfgts 	r4,r3 # cmpsi_gt
	l.bf	.L13
	l.nop			# nop delay slot
	l.j     	.L14 # jump_internal
	l.nop			# nop delay slot
.L380:
	l.lwz   	r3,-56(r2)	 # SI load
	l.ori   	r4,r3,0	 # move reg to reg
	l.lwz   	r3,-24(r2)	 # SI load
	l.add   	r3,r3,r4 # addsi3
	l.lbz   	r3,0(r3)	 # zero_extendqisi2
	l.ori   	r4,r3,0	 # move reg to reg
	l.lwz   	r3,-28(r2)	 # SI load
	l.sfles 	r4,r3 # cmpsi_le
	l.bf	.L1092
	l.nop			# nop delay slot
	l.lwz   	r3,-52(r2)	 # SI load
	l.ori   	r4,r3,0	 # move reg to reg
	l.lwz   	r3,-24(r2)	 # SI load
	l.add   	r3,r3,r4 # addsi3
	l.lbz   	r3,0(r3)	 # zero_extendqisi2
	l.ori   	r4,r3,0	 # move reg to reg
	l.lwz   	r3,-28(r2)	 # SI load
	l.sfles 	r4,r3 # cmpsi_le
	l.bf	.L1093
	l.nop			# nop delay slot
	l.lwz   	r3,-48(r2)	 # SI load
	l.ori   	r4,r3,0	 # move reg to reg
	l.lwz   	r3,-24(r2)	 # SI load
	l.add   	r3,r3,r4 # addsi3
	l.lbz   	r3,0(r3)	 # zero_extendqisi2
	l.ori   	r4,r3,0	 # move reg to reg
	l.lwz   	r3,-28(r2)	 # SI load
	l.sfles 	r4,r3 # cmpsi_le
	l.bf	.L1094
	l.nop			# nop delay slot
	l.lwz   	r3,-44(r2)	 # SI load
	l.ori   	r4,r3,0	 # move reg to reg
	l.lwz   	r3,-24(r2)	 # SI load
	l.add   	r3,r3,r4 # addsi3
	l.lbz   	r3,0(r3)	 # zero_extendqisi2
	l.ori   	r4,r3,0	 # move reg to reg
	l.lwz   	r3,-28(r2)	 # SI load
	l.sfles 	r4,r3 # cmpsi_le
	l.bf	.L1095
	l.nop			# nop delay slot
	l.lwz   	r3,-40(r2)	 # SI load
	l.ori   	r4,r3,0	 # move reg to reg
	l.lwz   	r3,-24(r2)	 # SI load
	l.add   	r3,r3,r4 # addsi3
	l.lbz   	r3,0(r3)	 # zero_extendqisi2
	l.ori   	r4,r3,0	 # move reg to reg
	l.lwz   	r3,-28(r2)	 # SI load
	l.sfgts 	r4,r3 # cmpsi_gt
	l.bf	.L13
	l.nop			# nop delay slot
	l.j     	.L14 # jump_internal
	l.nop			# nop delay slot
.L379:
	l.lwz   	r3,-56(r2)	 # SI load
	l.ori   	r4,r3,0	 # move reg to reg
	l.lwz   	r3,-24(r2)	 # SI load
	l.add   	r3,r3,r4 # addsi3
	l.lbz   	r3,0(r3)	 # zero_extendqisi2
	l.ori   	r4,r3,0	 # move reg to reg
	l.lwz   	r3,-28(r2)	 # SI load
	l.sfles 	r4,r3 # cmpsi_le
	l.bf	.L1096
	l.nop			# nop delay slot
	l.lwz   	r3,-52(r2)	 # SI load
	l.ori   	r4,r3,0	 # move reg to reg
	l.lwz   	r3,-24(r2)	 # SI load
	l.add   	r3,r3,r4 # addsi3
	l.lbz   	r3,0(r3)	 # zero_extendqisi2
	l.ori   	r4,r3,0	 # move reg to reg
	l.lwz   	r3,-28(r2)	 # SI load
	l.sfles 	r4,r3 # cmpsi_le
	l.bf	.L1097
	l.nop			# nop delay slot
	l.lwz   	r3,-48(r2)	 # SI load
	l.ori   	r4,r3,0	 # move reg to reg
	l.lwz   	r3,-24(r2)	 # SI load
	l.add   	r3,r3,r4 # addsi3
	l.lbz   	r3,0(r3)	 # zero_extendqisi2
	l.ori   	r4,r3,0	 # move reg to reg
	l.lwz   	r3,-28(r2)	 # SI load
	l.sfles 	r4,r3 # cmpsi_le
	l.bf	.L1098
	l.nop			# nop delay slot
	l.lwz   	r3,-44(r2)	 # SI load
	l.ori   	r4,r3,0	 # move reg to reg
	l.lwz   	r3,-24(r2)	 # SI load
	l.add   	r3,r3,r4 # addsi3
	l.lbz   	r3,0(r3)	 # zero_extendqisi2
	l.ori   	r4,r3,0	 # move reg to reg
	l.lwz   	r3,-28(r2)	 # SI load
	l.sfles 	r4,r3 # cmpsi_le
	l.bf	.L1099
	l.nop			# nop delay slot
	l.lwz   	r3,-40(r2)	 # SI load
	l.ori   	r4,r3,0	 # move reg to reg
	l.lwz   	r3,-24(r2)	 # SI load
	l.add   	r3,r3,r4 # addsi3
	l.lbz   	r3,0(r3)	 # zero_extendqisi2
	l.ori   	r4,r3,0	 # move reg to reg
	l.lwz   	r3,-28(r2)	 # SI load
	l.sfles 	r4,r3 # cmpsi_le
	l.bf	.L1100
	l.nop			# nop delay slot
	l.lwz   	r3,-36(r2)	 # SI load
	l.ori   	r4,r3,0	 # move reg to reg
	l.lwz   	r3,-24(r2)	 # SI load
	l.add   	r3,r3,r4 # addsi3
	l.lbz   	r3,0(r3)	 # zero_extendqisi2
	l.ori   	r4,r3,0	 # move reg to reg
	l.lwz   	r3,-28(r2)	 # SI load
	l.sfgts 	r4,r3 # cmpsi_gt
	l.bf	.L13
	l.nop			# nop delay slot
	l.j     	.L14 # jump_internal
	l.nop			# nop delay slot
.L376:
	l.lwz   	r3,-64(r2)	 # SI load
	l.ori   	r4,r3,0	 # move reg to reg
	l.lwz   	r3,-24(r2)	 # SI load
	l.add   	r3,r3,r4 # addsi3
	l.lbz   	r3,0(r3)	 # zero_extendqisi2
	l.ori   	r4,r3,0	 # move reg to reg
	l.lwz   	r3,-32(r2)	 # SI load
	l.sfges 	r4,r3 # cmpsi_ge
	l.bf	.L1101
	l.nop			# nop delay slot
	l.lwz   	r3,-60(r2)	 # SI load
	l.ori   	r4,r3,0	 # move reg to reg
	l.lwz   	r3,-24(r2)	 # SI load
	l.add   	r3,r3,r4 # addsi3
	l.lbz   	r3,0(r3)	 # zero_extendqisi2
	l.ori   	r4,r3,0	 # move reg to reg
	l.lwz   	r3,-32(r2)	 # SI load
	l.sfges 	r4,r3 # cmpsi_ge
	l.bf	.L1102
	l.nop			# nop delay slot
	l.lwz   	r3,-56(r2)	 # SI load
	l.ori   	r4,r3,0	 # move reg to reg
	l.lwz   	r3,-24(r2)	 # SI load
	l.add   	r3,r3,r4 # addsi3
	l.lbz   	r3,0(r3)	 # zero_extendqisi2
	l.ori   	r4,r3,0	 # move reg to reg
	l.lwz   	r3,-32(r2)	 # SI load
	l.sfges 	r4,r3 # cmpsi_ge
	l.bf	.L1103
	l.nop			# nop delay slot
	l.lwz   	r3,-52(r2)	 # SI load
	l.ori   	r4,r3,0	 # move reg to reg
	l.lwz   	r3,-24(r2)	 # SI load
	l.add   	r3,r3,r4 # addsi3
	l.lbz   	r3,0(r3)	 # zero_extendqisi2
	l.ori   	r4,r3,0	 # move reg to reg
	l.lwz   	r3,-32(r2)	 # SI load
	l.sfges 	r4,r3 # cmpsi_ge
	l.bf	.L401
	l.nop			# nop delay slot
	l.lwz   	r3,-48(r2)	 # SI load
	l.ori   	r4,r3,0	 # move reg to reg
	l.lwz   	r3,-24(r2)	 # SI load
	l.add   	r3,r3,r4 # addsi3
	l.lbz   	r3,0(r3)	 # zero_extendqisi2
	l.ori   	r4,r3,0	 # move reg to reg
	l.lwz   	r3,-32(r2)	 # SI load
	l.sfges 	r4,r3 # cmpsi_ge
	l.bf	.L402
	l.nop			# nop delay slot
	l.lwz   	r3,-44(r2)	 # SI load
	l.ori   	r4,r3,0	 # move reg to reg
	l.lwz   	r3,-24(r2)	 # SI load
	l.add   	r3,r3,r4 # addsi3
	l.lbz   	r3,0(r3)	 # zero_extendqisi2
	l.ori   	r4,r3,0	 # move reg to reg
	l.lwz   	r3,-32(r2)	 # SI load
	l.sfges 	r4,r3 # cmpsi_ge
	l.bf	.L403
	l.nop			# nop delay slot
	l.lwz   	r3,-40(r2)	 # SI load
	l.ori   	r4,r3,0	 # move reg to reg
	l.lwz   	r3,-24(r2)	 # SI load
	l.add   	r3,r3,r4 # addsi3
	l.lbz   	r3,0(r3)	 # zero_extendqisi2
	l.ori   	r4,r3,0	 # move reg to reg
	l.lwz   	r3,-32(r2)	 # SI load
	l.sfges 	r4,r3 # cmpsi_ge
	l.bf	.L404
	l.nop			# nop delay slot
	l.lwz   	r3,-36(r2)	 # SI load
	l.ori   	r4,r3,0	 # move reg to reg
	l.lwz   	r3,-24(r2)	 # SI load
	l.add   	r3,r3,r4 # addsi3
	l.lbz   	r3,0(r3)	 # zero_extendqisi2
	l.ori   	r4,r3,0	 # move reg to reg
	l.lwz   	r3,-32(r2)	 # SI load
	l.sflts 	r4,r3 # cmpsi_lt
	l.bf	.L13
	l.nop			# nop delay slot
	l.lwz   	r3,-72(r2)	 # SI load
	l.ori   	r4,r3,0	 # move reg to reg
	l.lwz   	r3,-24(r2)	 # SI load
	l.add   	r3,r3,r4 # addsi3
	l.lbz   	r3,0(r3)	 # zero_extendqisi2
	l.ori   	r4,r3,0	 # move reg to reg
	l.lwz   	r3,-32(r2)	 # SI load
	l.sfges 	r4,r3 # cmpsi_ge
	l.bf	.L1104
	l.nop			# nop delay slot
	l.lwz   	r3,-68(r2)	 # SI load
	l.ori   	r4,r3,0	 # move reg to reg
	l.lwz   	r3,-24(r2)	 # SI load
	l.add   	r3,r3,r4 # addsi3
	l.lbz   	r3,0(r3)	 # zero_extendqisi2
	l.ori   	r4,r3,0	 # move reg to reg
	l.lwz   	r3,-32(r2)	 # SI load
	l.sflts 	r4,r3 # cmpsi_lt
	l.bf	.L13
	l.nop			# nop delay slot
	l.j     	.L14 # jump_internal
	l.nop			# nop delay slot
.L404:
	l.lwz   	r3,-76(r2)	 # SI load
	l.ori   	r4,r3,0	 # move reg to reg
	l.lwz   	r3,-24(r2)	 # SI load
	l.add   	r3,r3,r4 # addsi3
	l.lbz   	r3,0(r3)	 # zero_extendqisi2
	l.ori   	r4,r3,0	 # move reg to reg
	l.lwz   	r3,-32(r2)	 # SI load
	l.sfges 	r4,r3 # cmpsi_ge
	l.bf	.L1105
	l.nop			# nop delay slot
	l.lwz   	r3,-72(r2)	 # SI load
	l.ori   	r4,r3,0	 # move reg to reg
	l.lwz   	r3,-24(r2)	 # SI load
	l.add   	r3,r3,r4 # addsi3
	l.lbz   	r3,0(r3)	 # zero_extendqisi2
	l.ori   	r4,r3,0	 # move reg to reg
	l.lwz   	r3,-32(r2)	 # SI load
	l.sfges 	r4,r3 # cmpsi_ge
	l.bf	.L1106
	l.nop			# nop delay slot
	l.lwz   	r3,-68(r2)	 # SI load
	l.ori   	r4,r3,0	 # move reg to reg
	l.lwz   	r3,-24(r2)	 # SI load
	l.add   	r3,r3,r4 # addsi3
	l.lbz   	r3,0(r3)	 # zero_extendqisi2
	l.ori   	r4,r3,0	 # move reg to reg
	l.lwz   	r3,-32(r2)	 # SI load
	l.sflts 	r4,r3 # cmpsi_lt
	l.bf	.L13
	l.nop			# nop delay slot
	l.j     	.L14 # jump_internal
	l.nop			# nop delay slot
.L403:
	l.lwz   	r3,-80(r2)	 # SI load
	l.ori   	r4,r3,0	 # move reg to reg
	l.lwz   	r3,-24(r2)	 # SI load
	l.add   	r3,r3,r4 # addsi3
	l.lbz   	r3,0(r3)	 # zero_extendqisi2
	l.ori   	r4,r3,0	 # move reg to reg
	l.lwz   	r3,-32(r2)	 # SI load
	l.sfges 	r4,r3 # cmpsi_ge
	l.bf	.L1107
	l.nop			# nop delay slot
	l.lwz   	r3,-76(r2)	 # SI load
	l.ori   	r4,r3,0	 # move reg to reg
	l.lwz   	r3,-24(r2)	 # SI load
	l.add   	r3,r3,r4 # addsi3
	l.lbz   	r3,0(r3)	 # zero_extendqisi2
	l.ori   	r4,r3,0	 # move reg to reg
	l.lwz   	r3,-32(r2)	 # SI load
	l.sfges 	r4,r3 # cmpsi_ge
	l.bf	.L1108
	l.nop			# nop delay slot
	l.lwz   	r3,-72(r2)	 # SI load
	l.ori   	r4,r3,0	 # move reg to reg
	l.lwz   	r3,-24(r2)	 # SI load
	l.add   	r3,r3,r4 # addsi3
	l.lbz   	r3,0(r3)	 # zero_extendqisi2
	l.ori   	r4,r3,0	 # move reg to reg
	l.lwz   	r3,-32(r2)	 # SI load
	l.sfges 	r4,r3 # cmpsi_ge
	l.bf	.L1109
	l.nop			# nop delay slot
	l.lwz   	r3,-68(r2)	 # SI load
	l.ori   	r4,r3,0	 # move reg to reg
	l.lwz   	r3,-24(r2)	 # SI load
	l.add   	r3,r3,r4 # addsi3
	l.lbz   	r3,0(r3)	 # zero_extendqisi2
	l.ori   	r4,r3,0	 # move reg to reg
	l.lwz   	r3,-32(r2)	 # SI load
	l.sflts 	r4,r3 # cmpsi_lt
	l.bf	.L13
	l.nop			# nop delay slot
	l.j     	.L14 # jump_internal
	l.nop			# nop delay slot
.L402:
	l.lwz   	r3,-84(r2)	 # SI load
	l.ori   	r4,r3,0	 # move reg to reg
	l.lwz   	r3,-24(r2)	 # SI load
	l.add   	r3,r3,r4 # addsi3
	l.lbz   	r3,0(r3)	 # zero_extendqisi2
	l.ori   	r4,r3,0	 # move reg to reg
	l.lwz   	r3,-32(r2)	 # SI load
	l.sfges 	r4,r3 # cmpsi_ge
	l.bf	.L1110
	l.nop			# nop delay slot
	l.lwz   	r3,-80(r2)	 # SI load
	l.ori   	r4,r3,0	 # move reg to reg
	l.lwz   	r3,-24(r2)	 # SI load
	l.add   	r3,r3,r4 # addsi3
	l.lbz   	r3,0(r3)	 # zero_extendqisi2
	l.ori   	r4,r3,0	 # move reg to reg
	l.lwz   	r3,-32(r2)	 # SI load
	l.sfges 	r4,r3 # cmpsi_ge
	l.bf	.L1111
	l.nop			# nop delay slot
	l.lwz   	r3,-76(r2)	 # SI load
	l.ori   	r4,r3,0	 # move reg to reg
	l.lwz   	r3,-24(r2)	 # SI load
	l.add   	r3,r3,r4 # addsi3
	l.lbz   	r3,0(r3)	 # zero_extendqisi2
	l.ori   	r4,r3,0	 # move reg to reg
	l.lwz   	r3,-32(r2)	 # SI load
	l.sfges 	r4,r3 # cmpsi_ge
	l.bf	.L1112
	l.nop			# nop delay slot
	l.lwz   	r3,-72(r2)	 # SI load
	l.ori   	r4,r3,0	 # move reg to reg
	l.lwz   	r3,-24(r2)	 # SI load
	l.add   	r3,r3,r4 # addsi3
	l.lbz   	r3,0(r3)	 # zero_extendqisi2
	l.ori   	r4,r3,0	 # move reg to reg
	l.lwz   	r3,-32(r2)	 # SI load
	l.sfges 	r4,r3 # cmpsi_ge
	l.bf	.L1113
	l.nop			# nop delay slot
	l.lwz   	r3,-68(r2)	 # SI load
	l.ori   	r4,r3,0	 # move reg to reg
	l.lwz   	r3,-24(r2)	 # SI load
	l.add   	r3,r3,r4 # addsi3
	l.lbz   	r3,0(r3)	 # zero_extendqisi2
	l.ori   	r4,r3,0	 # move reg to reg
	l.lwz   	r3,-32(r2)	 # SI load
	l.sflts 	r4,r3 # cmpsi_lt
	l.bf	.L13
	l.nop			# nop delay slot
	l.j     	.L14 # jump_internal
	l.nop			# nop delay slot
.L401:
	l.lwz   	r3,-88(r2)	 # SI load
	l.ori   	r4,r3,0	 # move reg to reg
	l.lwz   	r3,-24(r2)	 # SI load
	l.add   	r3,r3,r4 # addsi3
	l.lbz   	r3,0(r3)	 # zero_extendqisi2
	l.ori   	r4,r3,0	 # move reg to reg
	l.lwz   	r3,-32(r2)	 # SI load
	l.sfges 	r4,r3 # cmpsi_ge
	l.bf	.L1114
	l.nop			# nop delay slot
	l.lwz   	r3,-84(r2)	 # SI load
	l.ori   	r4,r3,0	 # move reg to reg
	l.lwz   	r3,-24(r2)	 # SI load
	l.add   	r3,r3,r4 # addsi3
	l.lbz   	r3,0(r3)	 # zero_extendqisi2
	l.ori   	r4,r3,0	 # move reg to reg
	l.lwz   	r3,-32(r2)	 # SI load
	l.sfges 	r4,r3 # cmpsi_ge
	l.bf	.L1115
	l.nop			# nop delay slot
	l.lwz   	r3,-80(r2)	 # SI load
	l.ori   	r4,r3,0	 # move reg to reg
	l.lwz   	r3,-24(r2)	 # SI load
	l.add   	r3,r3,r4 # addsi3
	l.lbz   	r3,0(r3)	 # zero_extendqisi2
	l.ori   	r4,r3,0	 # move reg to reg
	l.lwz   	r3,-32(r2)	 # SI load
	l.sfges 	r4,r3 # cmpsi_ge
	l.bf	.L1116
	l.nop			# nop delay slot
	l.lwz   	r3,-76(r2)	 # SI load
	l.ori   	r4,r3,0	 # move reg to reg
	l.lwz   	r3,-24(r2)	 # SI load
	l.add   	r3,r3,r4 # addsi3
	l.lbz   	r3,0(r3)	 # zero_extendqisi2
	l.ori   	r4,r3,0	 # move reg to reg
	l.lwz   	r3,-32(r2)	 # SI load
	l.sfges 	r4,r3 # cmpsi_ge
	l.bf	.L1117
	l.nop			# nop delay slot
	l.lwz   	r3,-72(r2)	 # SI load
	l.ori   	r4,r3,0	 # move reg to reg
	l.lwz   	r3,-24(r2)	 # SI load
	l.add   	r3,r3,r4 # addsi3
	l.lbz   	r3,0(r3)	 # zero_extendqisi2
	l.ori   	r4,r3,0	 # move reg to reg
	l.lwz   	r3,-32(r2)	 # SI load
	l.sfges 	r4,r3 # cmpsi_ge
	l.bf	.L1118
	l.nop			# nop delay slot
	l.lwz   	r3,-68(r2)	 # SI load
	l.ori   	r4,r3,0	 # move reg to reg
	l.lwz   	r3,-24(r2)	 # SI load
	l.add   	r3,r3,r4 # addsi3
	l.lbz   	r3,0(r3)	 # zero_extendqisi2
	l.ori   	r4,r3,0	 # move reg to reg
	l.lwz   	r3,-32(r2)	 # SI load
	l.sflts 	r4,r3 # cmpsi_lt
	l.bf	.L13
	l.nop			# nop delay slot
	l.j     	.L14 # jump_internal
	l.nop			# nop delay slot
.L375:
	l.lwz   	r3,-92(r2)	 # SI load
	l.ori   	r4,r3,0	 # move reg to reg
	l.lwz   	r3,-24(r2)	 # SI load
	l.add   	r3,r3,r4 # addsi3
	l.lbz   	r3,0(r3)	 # zero_extendqisi2
	l.ori   	r4,r3,0	 # move reg to reg
	l.lwz   	r3,-32(r2)	 # SI load
	l.sfges 	r4,r3 # cmpsi_ge
	l.bf	.L420
	l.nop			# nop delay slot
	l.lwz   	r3,-88(r2)	 # SI load
	l.ori   	r4,r3,0	 # move reg to reg
	l.lwz   	r3,-24(r2)	 # SI load
	l.add   	r3,r3,r4 # addsi3
	l.lbz   	r3,0(r3)	 # zero_extendqisi2
	l.ori   	r4,r3,0	 # move reg to reg
	l.lwz   	r3,-28(r2)	 # SI load
	l.sfles 	r4,r3 # cmpsi_le
	l.bf	.L421
	l.nop			# nop delay slot
	l.lwz   	r3,-60(r2)	 # SI load
	l.ori   	r4,r3,0	 # move reg to reg
	l.lwz   	r3,-24(r2)	 # SI load
	l.add   	r3,r3,r4 # addsi3
	l.lbz   	r3,0(r3)	 # zero_extendqisi2
	l.ori   	r4,r3,0	 # move reg to reg
	l.lwz   	r3,-28(r2)	 # SI load
	l.sfles 	r4,r3 # cmpsi_le
	l.bf	.L422
	l.nop			# nop delay slot
	l.lwz   	r3,-68(r2)	 # SI load
	l.ori   	r4,r3,0	 # move reg to reg
	l.lwz   	r3,-24(r2)	 # SI load
	l.add   	r3,r3,r4 # addsi3
	l.lbz   	r3,0(r3)	 # zero_extendqisi2
	l.ori   	r4,r3,0	 # move reg to reg
	l.lwz   	r3,-28(r2)	 # SI load
	l.sfles 	r4,r3 # cmpsi_le
	l.bf	.L1119
	l.nop			# nop delay slot
	l.lwz   	r3,-64(r2)	 # SI load
	l.ori   	r4,r3,0	 # move reg to reg
	l.lwz   	r3,-24(r2)	 # SI load
	l.add   	r3,r3,r4 # addsi3
	l.lbz   	r3,0(r3)	 # zero_extendqisi2
	l.ori   	r4,r3,0	 # move reg to reg
	l.lwz   	r3,-28(r2)	 # SI load
	l.sfles 	r4,r3 # cmpsi_le
	l.bf	.L1120
	l.nop			# nop delay slot
	l.lwz   	r3,-56(r2)	 # SI load
	l.ori   	r4,r3,0	 # move reg to reg
	l.lwz   	r3,-24(r2)	 # SI load
	l.add   	r3,r3,r4 # addsi3
	l.lbz   	r3,0(r3)	 # zero_extendqisi2
	l.ori   	r4,r3,0	 # move reg to reg
	l.lwz   	r3,-28(r2)	 # SI load
	l.sfles 	r4,r3 # cmpsi_le
	l.bf	.L1121
	l.nop			# nop delay slot
	l.lwz   	r3,-72(r2)	 # SI load
	l.ori   	r4,r3,0	 # move reg to reg
	l.lwz   	r3,-24(r2)	 # SI load
	l.add   	r3,r3,r4 # addsi3
	l.lbz   	r3,0(r3)	 # zero_extendqisi2
	l.ori   	r4,r3,0	 # move reg to reg
	l.lwz   	r3,-28(r2)	 # SI load
	l.sfles 	r4,r3 # cmpsi_le
	l.bf	.L426
	l.nop			# nop delay slot
	l.lwz   	r3,-76(r2)	 # SI load
	l.ori   	r4,r3,0	 # move reg to reg
	l.lwz   	r3,-24(r2)	 # SI load
	l.add   	r3,r3,r4 # addsi3
	l.lbz   	r3,0(r3)	 # zero_extendqisi2
	l.ori   	r4,r3,0	 # move reg to reg
	l.lwz   	r3,-28(r2)	 # SI load
	l.sfles 	r4,r3 # cmpsi_le
	l.bf	.L427
	l.nop			# nop delay slot
	l.lwz   	r3,-80(r2)	 # SI load
	l.ori   	r4,r3,0	 # move reg to reg
	l.lwz   	r3,-24(r2)	 # SI load
	l.add   	r3,r3,r4 # addsi3
	l.lbz   	r3,0(r3)	 # zero_extendqisi2
	l.ori   	r4,r3,0	 # move reg to reg
	l.lwz   	r3,-28(r2)	 # SI load
	l.sfles 	r4,r3 # cmpsi_le
	l.bf	.L428
	l.nop			# nop delay slot
	l.lwz   	r3,-84(r2)	 # SI load
	l.ori   	r4,r3,0	 # move reg to reg
	l.lwz   	r3,-24(r2)	 # SI load
	l.add   	r3,r3,r4 # addsi3
	l.lbz   	r3,0(r3)	 # zero_extendqisi2
	l.ori   	r4,r3,0	 # move reg to reg
	l.lwz   	r3,-28(r2)	 # SI load
	l.sfgts 	r4,r3 # cmpsi_gt
	l.bf	.L13
	l.nop			# nop delay slot
	l.lwz   	r3,-52(r2)	 # SI load
	l.ori   	r4,r3,0	 # move reg to reg
	l.lwz   	r3,-24(r2)	 # SI load
	l.add   	r3,r3,r4 # addsi3
	l.lbz   	r3,0(r3)	 # zero_extendqisi2
	l.ori   	r4,r3,0	 # move reg to reg
	l.lwz   	r3,-28(r2)	 # SI load
	l.sfles 	r4,r3 # cmpsi_le
	l.bf	.L1122
	l.nop			# nop delay slot
	l.lwz   	r3,-48(r2)	 # SI load
	l.ori   	r4,r3,0	 # move reg to reg
	l.lwz   	r3,-24(r2)	 # SI load
	l.add   	r3,r3,r4 # addsi3
	l.lbz   	r3,0(r3)	 # zero_extendqisi2
	l.ori   	r4,r3,0	 # move reg to reg
	l.lwz   	r3,-28(r2)	 # SI load
	l.sfgts 	r4,r3 # cmpsi_gt
	l.bf	.L13
	l.nop			# nop delay slot
	l.j     	.L14 # jump_internal
	l.nop			# nop delay slot
.L428:
	l.lwz   	r3,-52(r2)	 # SI load
	l.ori   	r4,r3,0	 # move reg to reg
	l.lwz   	r3,-24(r2)	 # SI load
	l.add   	r3,r3,r4 # addsi3
	l.lbz   	r3,0(r3)	 # zero_extendqisi2
	l.ori   	r4,r3,0	 # move reg to reg
	l.lwz   	r3,-28(r2)	 # SI load
	l.sfles 	r4,r3 # cmpsi_le
	l.bf	.L1123
	l.nop			# nop delay slot
	l.lwz   	r3,-48(r2)	 # SI load
	l.ori   	r4,r3,0	 # move reg to reg
	l.lwz   	r3,-24(r2)	 # SI load
	l.add   	r3,r3,r4 # addsi3
	l.lbz   	r3,0(r3)	 # zero_extendqisi2
	l.ori   	r4,r3,0	 # move reg to reg
	l.lwz   	r3,-28(r2)	 # SI load
	l.sfles 	r4,r3 # cmpsi_le
	l.bf	.L1124
	l.nop			# nop delay slot
	l.lwz   	r3,-44(r2)	 # SI load
	l.ori   	r4,r3,0	 # move reg to reg
	l.lwz   	r3,-24(r2)	 # SI load
	l.add   	r3,r3,r4 # addsi3
	l.lbz   	r3,0(r3)	 # zero_extendqisi2
	l.ori   	r4,r3,0	 # move reg to reg
	l.lwz   	r3,-28(r2)	 # SI load
	l.sfgts 	r4,r3 # cmpsi_gt
	l.bf	.L13
	l.nop			# nop delay slot
	l.j     	.L14 # jump_internal
	l.nop			# nop delay slot
.L427:
	l.lwz   	r3,-52(r2)	 # SI load
	l.ori   	r4,r3,0	 # move reg to reg
	l.lwz   	r3,-24(r2)	 # SI load
	l.add   	r3,r3,r4 # addsi3
	l.lbz   	r3,0(r3)	 # zero_extendqisi2
	l.ori   	r4,r3,0	 # move reg to reg
	l.lwz   	r3,-28(r2)	 # SI load
	l.sfles 	r4,r3 # cmpsi_le
	l.bf	.L1125
	l.nop			# nop delay slot
	l.lwz   	r3,-48(r2)	 # SI load
	l.ori   	r4,r3,0	 # move reg to reg
	l.lwz   	r3,-24(r2)	 # SI load
	l.add   	r3,r3,r4 # addsi3
	l.lbz   	r3,0(r3)	 # zero_extendqisi2
	l.ori   	r4,r3,0	 # move reg to reg
	l.lwz   	r3,-28(r2)	 # SI load
	l.sfles 	r4,r3 # cmpsi_le
	l.bf	.L1126
	l.nop			# nop delay slot
	l.lwz   	r3,-44(r2)	 # SI load
	l.ori   	r4,r3,0	 # move reg to reg
	l.lwz   	r3,-24(r2)	 # SI load
	l.add   	r3,r3,r4 # addsi3
	l.lbz   	r3,0(r3)	 # zero_extendqisi2
	l.ori   	r4,r3,0	 # move reg to reg
	l.lwz   	r3,-28(r2)	 # SI load
	l.sfles 	r4,r3 # cmpsi_le
	l.bf	.L1127
	l.nop			# nop delay slot
	l.lwz   	r3,-40(r2)	 # SI load
	l.ori   	r4,r3,0	 # move reg to reg
	l.lwz   	r3,-24(r2)	 # SI load
	l.add   	r3,r3,r4 # addsi3
	l.lbz   	r3,0(r3)	 # zero_extendqisi2
	l.ori   	r4,r3,0	 # move reg to reg
	l.lwz   	r3,-28(r2)	 # SI load
	l.sfgts 	r4,r3 # cmpsi_gt
	l.bf	.L13
	l.nop			# nop delay slot
	l.j     	.L14 # jump_internal
	l.nop			# nop delay slot
.L426:
	l.lwz   	r3,-52(r2)	 # SI load
	l.ori   	r4,r3,0	 # move reg to reg
	l.lwz   	r3,-24(r2)	 # SI load
	l.add   	r3,r3,r4 # addsi3
	l.lbz   	r3,0(r3)	 # zero_extendqisi2
	l.ori   	r4,r3,0	 # move reg to reg
	l.lwz   	r3,-28(r2)	 # SI load
	l.sfles 	r4,r3 # cmpsi_le
	l.bf	.L1128
	l.nop			# nop delay slot
	l.lwz   	r3,-48(r2)	 # SI load
	l.ori   	r4,r3,0	 # move reg to reg
	l.lwz   	r3,-24(r2)	 # SI load
	l.add   	r3,r3,r4 # addsi3
	l.lbz   	r3,0(r3)	 # zero_extendqisi2
	l.ori   	r4,r3,0	 # move reg to reg
	l.lwz   	r3,-28(r2)	 # SI load
	l.sfles 	r4,r3 # cmpsi_le
	l.bf	.L1129
	l.nop			# nop delay slot
	l.lwz   	r3,-44(r2)	 # SI load
	l.ori   	r4,r3,0	 # move reg to reg
	l.lwz   	r3,-24(r2)	 # SI load
	l.add   	r3,r3,r4 # addsi3
	l.lbz   	r3,0(r3)	 # zero_extendqisi2
	l.ori   	r4,r3,0	 # move reg to reg
	l.lwz   	r3,-28(r2)	 # SI load
	l.sfles 	r4,r3 # cmpsi_le
	l.bf	.L1130
	l.nop			# nop delay slot
	l.lwz   	r3,-40(r2)	 # SI load
	l.ori   	r4,r3,0	 # move reg to reg
	l.lwz   	r3,-24(r2)	 # SI load
	l.add   	r3,r3,r4 # addsi3
	l.lbz   	r3,0(r3)	 # zero_extendqisi2
	l.ori   	r4,r3,0	 # move reg to reg
	l.lwz   	r3,-28(r2)	 # SI load
	l.sfles 	r4,r3 # cmpsi_le
	l.bf	.L1131
	l.nop			# nop delay slot
	l.lwz   	r3,-36(r2)	 # SI load
	l.ori   	r4,r3,0	 # move reg to reg
	l.lwz   	r3,-24(r2)	 # SI load
	l.add   	r3,r3,r4 # addsi3
	l.lbz   	r3,0(r3)	 # zero_extendqisi2
	l.ori   	r4,r3,0	 # move reg to reg
	l.lwz   	r3,-28(r2)	 # SI load
	l.sfgts 	r4,r3 # cmpsi_gt
	l.bf	.L13
	l.nop			# nop delay slot
	l.j     	.L14 # jump_internal
	l.nop			# nop delay slot
.L422:
	l.lwz   	r3,-60(r2)	 # SI load
	l.ori   	r4,r3,0	 # move reg to reg
	l.lwz   	r3,-24(r2)	 # SI load
	l.add   	r3,r3,r4 # addsi3
	l.lbz   	r3,0(r3)	 # zero_extendqisi2
	l.ori   	r4,r3,0	 # move reg to reg
	l.lwz   	r3,-32(r2)	 # SI load
	l.sfges 	r4,r3 # cmpsi_ge
	l.bf	.L1132
	l.nop			# nop delay slot
	l.lwz   	r3,-56(r2)	 # SI load
	l.ori   	r4,r3,0	 # move reg to reg
	l.lwz   	r3,-24(r2)	 # SI load
	l.add   	r3,r3,r4 # addsi3
	l.lbz   	r3,0(r3)	 # zero_extendqisi2
	l.ori   	r4,r3,0	 # move reg to reg
	l.lwz   	r3,-32(r2)	 # SI load
	l.sfges 	r4,r3 # cmpsi_ge
	l.bf	.L1133
	l.nop			# nop delay slot
	l.lwz   	r3,-52(r2)	 # SI load
	l.ori   	r4,r3,0	 # move reg to reg
	l.lwz   	r3,-24(r2)	 # SI load
	l.add   	r3,r3,r4 # addsi3
	l.lbz   	r3,0(r3)	 # zero_extendqisi2
	l.ori   	r4,r3,0	 # move reg to reg
	l.lwz   	r3,-32(r2)	 # SI load
	l.sfges 	r4,r3 # cmpsi_ge
	l.bf	.L1134
	l.nop			# nop delay slot
	l.lwz   	r3,-48(r2)	 # SI load
	l.ori   	r4,r3,0	 # move reg to reg
	l.lwz   	r3,-24(r2)	 # SI load
	l.add   	r3,r3,r4 # addsi3
	l.lbz   	r3,0(r3)	 # zero_extendqisi2
	l.ori   	r4,r3,0	 # move reg to reg
	l.lwz   	r3,-32(r2)	 # SI load
	l.sfges 	r4,r3 # cmpsi_ge
	l.bf	.L442
	l.nop			# nop delay slot
	l.lwz   	r3,-44(r2)	 # SI load
	l.ori   	r4,r3,0	 # move reg to reg
	l.lwz   	r3,-24(r2)	 # SI load
	l.add   	r3,r3,r4 # addsi3
	l.lbz   	r3,0(r3)	 # zero_extendqisi2
	l.ori   	r4,r3,0	 # move reg to reg
	l.lwz   	r3,-32(r2)	 # SI load
	l.sfges 	r4,r3 # cmpsi_ge
	l.bf	.L443
	l.nop			# nop delay slot
	l.lwz   	r3,-40(r2)	 # SI load
	l.ori   	r4,r3,0	 # move reg to reg
	l.lwz   	r3,-24(r2)	 # SI load
	l.add   	r3,r3,r4 # addsi3
	l.lbz   	r3,0(r3)	 # zero_extendqisi2
	l.ori   	r4,r3,0	 # move reg to reg
	l.lwz   	r3,-32(r2)	 # SI load
	l.sfges 	r4,r3 # cmpsi_ge
	l.bf	.L444
	l.nop			# nop delay slot
	l.lwz   	r3,-36(r2)	 # SI load
	l.ori   	r4,r3,0	 # move reg to reg
	l.lwz   	r3,-24(r2)	 # SI load
	l.add   	r3,r3,r4 # addsi3
	l.lbz   	r3,0(r3)	 # zero_extendqisi2
	l.ori   	r4,r3,0	 # move reg to reg
	l.lwz   	r3,-32(r2)	 # SI load
	l.sflts 	r4,r3 # cmpsi_lt
	l.bf	.L13
	l.nop			# nop delay slot
	l.lwz   	r3,-72(r2)	 # SI load
	l.ori   	r4,r3,0	 # move reg to reg
	l.lwz   	r3,-24(r2)	 # SI load
	l.add   	r3,r3,r4 # addsi3
	l.lbz   	r3,0(r3)	 # zero_extendqisi2
	l.ori   	r4,r3,0	 # move reg to reg
	l.lwz   	r3,-32(r2)	 # SI load
	l.sfges 	r4,r3 # cmpsi_ge
	l.bf	.L1135
	l.nop			# nop delay slot
	l.lwz   	r3,-68(r2)	 # SI load
	l.ori   	r4,r3,0	 # move reg to reg
	l.lwz   	r3,-24(r2)	 # SI load
	l.add   	r3,r3,r4 # addsi3
	l.lbz   	r3,0(r3)	 # zero_extendqisi2
	l.ori   	r4,r3,0	 # move reg to reg
	l.lwz   	r3,-32(r2)	 # SI load
	l.sfges 	r4,r3 # cmpsi_ge
	l.bf	.L1136
	l.nop			# nop delay slot
	l.lwz   	r3,-64(r2)	 # SI load
	l.ori   	r4,r3,0	 # move reg to reg
	l.lwz   	r3,-24(r2)	 # SI load
	l.add   	r3,r3,r4 # addsi3
	l.lbz   	r3,0(r3)	 # zero_extendqisi2
	l.ori   	r4,r3,0	 # move reg to reg
	l.lwz   	r3,-32(r2)	 # SI load
	l.sflts 	r4,r3 # cmpsi_lt
	l.bf	.L13
	l.nop			# nop delay slot
	l.j     	.L14 # jump_internal
	l.nop			# nop delay slot
.L444:
	l.lwz   	r3,-76(r2)	 # SI load
	l.ori   	r4,r3,0	 # move reg to reg
	l.lwz   	r3,-24(r2)	 # SI load
	l.add   	r3,r3,r4 # addsi3
	l.lbz   	r3,0(r3)	 # zero_extendqisi2
	l.ori   	r4,r3,0	 # move reg to reg
	l.lwz   	r3,-32(r2)	 # SI load
	l.sfges 	r4,r3 # cmpsi_ge
	l.bf	.L1137
	l.nop			# nop delay slot
	l.lwz   	r3,-72(r2)	 # SI load
	l.ori   	r4,r3,0	 # move reg to reg
	l.lwz   	r3,-24(r2)	 # SI load
	l.add   	r3,r3,r4 # addsi3
	l.lbz   	r3,0(r3)	 # zero_extendqisi2
	l.ori   	r4,r3,0	 # move reg to reg
	l.lwz   	r3,-32(r2)	 # SI load
	l.sfges 	r4,r3 # cmpsi_ge
	l.bf	.L1138
	l.nop			# nop delay slot
	l.lwz   	r3,-68(r2)	 # SI load
	l.ori   	r4,r3,0	 # move reg to reg
	l.lwz   	r3,-24(r2)	 # SI load
	l.add   	r3,r3,r4 # addsi3
	l.lbz   	r3,0(r3)	 # zero_extendqisi2
	l.ori   	r4,r3,0	 # move reg to reg
	l.lwz   	r3,-32(r2)	 # SI load
	l.sfges 	r4,r3 # cmpsi_ge
	l.bf	.L1139
	l.nop			# nop delay slot
	l.lwz   	r3,-64(r2)	 # SI load
	l.ori   	r4,r3,0	 # move reg to reg
	l.lwz   	r3,-24(r2)	 # SI load
	l.add   	r3,r3,r4 # addsi3
	l.lbz   	r3,0(r3)	 # zero_extendqisi2
	l.ori   	r4,r3,0	 # move reg to reg
	l.lwz   	r3,-32(r2)	 # SI load
	l.sflts 	r4,r3 # cmpsi_lt
	l.bf	.L13
	l.nop			# nop delay slot
	l.j     	.L14 # jump_internal
	l.nop			# nop delay slot
.L443:
	l.lwz   	r3,-80(r2)	 # SI load
	l.ori   	r4,r3,0	 # move reg to reg
	l.lwz   	r3,-24(r2)	 # SI load
	l.add   	r3,r3,r4 # addsi3
	l.lbz   	r3,0(r3)	 # zero_extendqisi2
	l.ori   	r4,r3,0	 # move reg to reg
	l.lwz   	r3,-32(r2)	 # SI load
	l.sfges 	r4,r3 # cmpsi_ge
	l.bf	.L1140
	l.nop			# nop delay slot
	l.lwz   	r3,-76(r2)	 # SI load
	l.ori   	r4,r3,0	 # move reg to reg
	l.lwz   	r3,-24(r2)	 # SI load
	l.add   	r3,r3,r4 # addsi3
	l.lbz   	r3,0(r3)	 # zero_extendqisi2
	l.ori   	r4,r3,0	 # move reg to reg
	l.lwz   	r3,-32(r2)	 # SI load
	l.sfges 	r4,r3 # cmpsi_ge
	l.bf	.L1141
	l.nop			# nop delay slot
	l.lwz   	r3,-72(r2)	 # SI load
	l.ori   	r4,r3,0	 # move reg to reg
	l.lwz   	r3,-24(r2)	 # SI load
	l.add   	r3,r3,r4 # addsi3
	l.lbz   	r3,0(r3)	 # zero_extendqisi2
	l.ori   	r4,r3,0	 # move reg to reg
	l.lwz   	r3,-32(r2)	 # SI load
	l.sfges 	r4,r3 # cmpsi_ge
	l.bf	.L1142
	l.nop			# nop delay slot
	l.lwz   	r3,-68(r2)	 # SI load
	l.ori   	r4,r3,0	 # move reg to reg
	l.lwz   	r3,-24(r2)	 # SI load
	l.add   	r3,r3,r4 # addsi3
	l.lbz   	r3,0(r3)	 # zero_extendqisi2
	l.ori   	r4,r3,0	 # move reg to reg
	l.lwz   	r3,-32(r2)	 # SI load
	l.sfges 	r4,r3 # cmpsi_ge
	l.bf	.L1143
	l.nop			# nop delay slot
	l.lwz   	r3,-64(r2)	 # SI load
	l.ori   	r4,r3,0	 # move reg to reg
	l.lwz   	r3,-24(r2)	 # SI load
	l.add   	r3,r3,r4 # addsi3
	l.lbz   	r3,0(r3)	 # zero_extendqisi2
	l.ori   	r4,r3,0	 # move reg to reg
	l.lwz   	r3,-32(r2)	 # SI load
	l.sflts 	r4,r3 # cmpsi_lt
	l.bf	.L13
	l.nop			# nop delay slot
	l.j     	.L14 # jump_internal
	l.nop			# nop delay slot
.L442:
	l.lwz   	r3,-84(r2)	 # SI load
	l.ori   	r4,r3,0	 # move reg to reg
	l.lwz   	r3,-24(r2)	 # SI load
	l.add   	r3,r3,r4 # addsi3
	l.lbz   	r3,0(r3)	 # zero_extendqisi2
	l.ori   	r4,r3,0	 # move reg to reg
	l.lwz   	r3,-32(r2)	 # SI load
	l.sfges 	r4,r3 # cmpsi_ge
	l.bf	.L1144
	l.nop			# nop delay slot
	l.lwz   	r3,-80(r2)	 # SI load
	l.ori   	r4,r3,0	 # move reg to reg
	l.lwz   	r3,-24(r2)	 # SI load
	l.add   	r3,r3,r4 # addsi3
	l.lbz   	r3,0(r3)	 # zero_extendqisi2
	l.ori   	r4,r3,0	 # move reg to reg
	l.lwz   	r3,-32(r2)	 # SI load
	l.sfges 	r4,r3 # cmpsi_ge
	l.bf	.L1145
	l.nop			# nop delay slot
	l.lwz   	r3,-76(r2)	 # SI load
	l.ori   	r4,r3,0	 # move reg to reg
	l.lwz   	r3,-24(r2)	 # SI load
	l.add   	r3,r3,r4 # addsi3
	l.lbz   	r3,0(r3)	 # zero_extendqisi2
	l.ori   	r4,r3,0	 # move reg to reg
	l.lwz   	r3,-32(r2)	 # SI load
	l.sfges 	r4,r3 # cmpsi_ge
	l.bf	.L1146
	l.nop			# nop delay slot
	l.lwz   	r3,-72(r2)	 # SI load
	l.ori   	r4,r3,0	 # move reg to reg
	l.lwz   	r3,-24(r2)	 # SI load
	l.add   	r3,r3,r4 # addsi3
	l.lbz   	r3,0(r3)	 # zero_extendqisi2
	l.ori   	r4,r3,0	 # move reg to reg
	l.lwz   	r3,-32(r2)	 # SI load
	l.sfges 	r4,r3 # cmpsi_ge
	l.bf	.L1147
	l.nop			# nop delay slot
	l.lwz   	r3,-68(r2)	 # SI load
	l.ori   	r4,r3,0	 # move reg to reg
	l.lwz   	r3,-24(r2)	 # SI load
	l.add   	r3,r3,r4 # addsi3
	l.lbz   	r3,0(r3)	 # zero_extendqisi2
	l.ori   	r4,r3,0	 # move reg to reg
	l.lwz   	r3,-32(r2)	 # SI load
	l.sfges 	r4,r3 # cmpsi_ge
	l.bf	.L1148
	l.nop			# nop delay slot
	l.lwz   	r3,-64(r2)	 # SI load
	l.ori   	r4,r3,0	 # move reg to reg
	l.lwz   	r3,-24(r2)	 # SI load
	l.add   	r3,r3,r4 # addsi3
	l.lbz   	r3,0(r3)	 # zero_extendqisi2
	l.ori   	r4,r3,0	 # move reg to reg
	l.lwz   	r3,-32(r2)	 # SI load
	l.sflts 	r4,r3 # cmpsi_lt
	l.bf	.L13
	l.nop			# nop delay slot
	l.j     	.L14 # jump_internal
	l.nop			# nop delay slot
.L421:
	l.lwz   	r3,-88(r2)	 # SI load
	l.ori   	r4,r3,0	 # move reg to reg
	l.lwz   	r3,-24(r2)	 # SI load
	l.add   	r3,r3,r4 # addsi3
	l.lbz   	r3,0(r3)	 # zero_extendqisi2
	l.ori   	r4,r3,0	 # move reg to reg
	l.lwz   	r3,-32(r2)	 # SI load
	l.sfges 	r4,r3 # cmpsi_ge
	l.bf	.L459
	l.nop			# nop delay slot
	l.lwz   	r3,-84(r2)	 # SI load
	l.ori   	r4,r3,0	 # move reg to reg
	l.lwz   	r3,-24(r2)	 # SI load
	l.add   	r3,r3,r4 # addsi3
	l.lbz   	r3,0(r3)	 # zero_extendqisi2
	l.ori   	r4,r3,0	 # move reg to reg
	l.lwz   	r3,-28(r2)	 # SI load
	l.sfles 	r4,r3 # cmpsi_le
	l.bf	.L460
	l.nop			# nop delay slot
	l.lwz   	r3,-56(r2)	 # SI load
	l.ori   	r4,r3,0	 # move reg to reg
	l.lwz   	r3,-24(r2)	 # SI load
	l.add   	r3,r3,r4 # addsi3
	l.lbz   	r3,0(r3)	 # zero_extendqisi2
	l.ori   	r4,r3,0	 # move reg to reg
	l.lwz   	r3,-28(r2)	 # SI load
	l.sfles 	r4,r3 # cmpsi_le
	l.bf	.L461
	l.nop			# nop delay slot
	l.lwz   	r3,-68(r2)	 # SI load
	l.ori   	r4,r3,0	 # move reg to reg
	l.lwz   	r3,-24(r2)	 # SI load
	l.add   	r3,r3,r4 # addsi3
	l.lbz   	r3,0(r3)	 # zero_extendqisi2
	l.ori   	r4,r3,0	 # move reg to reg
	l.lwz   	r3,-28(r2)	 # SI load
	l.sfles 	r4,r3 # cmpsi_le
	l.bf	.L1149
	l.nop			# nop delay slot
	l.lwz   	r3,-64(r2)	 # SI load
	l.ori   	r4,r3,0	 # move reg to reg
	l.lwz   	r3,-24(r2)	 # SI load
	l.add   	r3,r3,r4 # addsi3
	l.lbz   	r3,0(r3)	 # zero_extendqisi2
	l.ori   	r4,r3,0	 # move reg to reg
	l.lwz   	r3,-28(r2)	 # SI load
	l.sfles 	r4,r3 # cmpsi_le
	l.bf	.L1150
	l.nop			# nop delay slot
	l.lwz   	r3,-60(r2)	 # SI load
	l.ori   	r4,r3,0	 # move reg to reg
	l.lwz   	r3,-24(r2)	 # SI load
	l.add   	r3,r3,r4 # addsi3
	l.lbz   	r3,0(r3)	 # zero_extendqisi2
	l.ori   	r4,r3,0	 # move reg to reg
	l.lwz   	r3,-28(r2)	 # SI load
	l.sfles 	r4,r3 # cmpsi_le
	l.bf	.L1151
	l.nop			# nop delay slot
	l.lwz   	r3,-52(r2)	 # SI load
	l.ori   	r4,r3,0	 # move reg to reg
	l.lwz   	r3,-24(r2)	 # SI load
	l.add   	r3,r3,r4 # addsi3
	l.lbz   	r3,0(r3)	 # zero_extendqisi2
	l.ori   	r4,r3,0	 # move reg to reg
	l.lwz   	r3,-28(r2)	 # SI load
	l.sfles 	r4,r3 # cmpsi_le
	l.bf	.L1152
	l.nop			# nop delay slot
	l.lwz   	r3,-72(r2)	 # SI load
	l.ori   	r4,r3,0	 # move reg to reg
	l.lwz   	r3,-24(r2)	 # SI load
	l.add   	r3,r3,r4 # addsi3
	l.lbz   	r3,0(r3)	 # zero_extendqisi2
	l.ori   	r4,r3,0	 # move reg to reg
	l.lwz   	r3,-28(r2)	 # SI load
	l.sfles 	r4,r3 # cmpsi_le
	l.bf	.L466
	l.nop			# nop delay slot
	l.lwz   	r3,-76(r2)	 # SI load
	l.ori   	r4,r3,0	 # move reg to reg
	l.lwz   	r3,-24(r2)	 # SI load
	l.add   	r3,r3,r4 # addsi3
	l.lbz   	r3,0(r3)	 # zero_extendqisi2
	l.ori   	r4,r3,0	 # move reg to reg
	l.lwz   	r3,-28(r2)	 # SI load
	l.sfles 	r4,r3 # cmpsi_le
	l.bf	.L467
	l.nop			# nop delay slot
	l.lwz   	r3,-80(r2)	 # SI load
	l.ori   	r4,r3,0	 # move reg to reg
	l.lwz   	r3,-24(r2)	 # SI load
	l.add   	r3,r3,r4 # addsi3
	l.lbz   	r3,0(r3)	 # zero_extendqisi2
	l.ori   	r4,r3,0	 # move reg to reg
	l.lwz   	r3,-28(r2)	 # SI load
	l.sfgts 	r4,r3 # cmpsi_gt
	l.bf	.L13
	l.nop			# nop delay slot
	l.lwz   	r3,-48(r2)	 # SI load
	l.ori   	r4,r3,0	 # move reg to reg
	l.lwz   	r3,-24(r2)	 # SI load
	l.add   	r3,r3,r4 # addsi3
	l.lbz   	r3,0(r3)	 # zero_extendqisi2
	l.ori   	r4,r3,0	 # move reg to reg
	l.lwz   	r3,-28(r2)	 # SI load
	l.sfles 	r4,r3 # cmpsi_le
	l.bf	.L1153
	l.nop			# nop delay slot
	l.lwz   	r3,-44(r2)	 # SI load
	l.ori   	r4,r3,0	 # move reg to reg
	l.lwz   	r3,-24(r2)	 # SI load
	l.add   	r3,r3,r4 # addsi3
	l.lbz   	r3,0(r3)	 # zero_extendqisi2
	l.ori   	r4,r3,0	 # move reg to reg
	l.lwz   	r3,-28(r2)	 # SI load
	l.sfgts 	r4,r3 # cmpsi_gt
	l.bf	.L13
	l.nop			# nop delay slot
	l.j     	.L14 # jump_internal
	l.nop			# nop delay slot
.L467:
	l.lwz   	r3,-48(r2)	 # SI load
	l.ori   	r4,r3,0	 # move reg to reg
	l.lwz   	r3,-24(r2)	 # SI load
	l.add   	r3,r3,r4 # addsi3
	l.lbz   	r3,0(r3)	 # zero_extendqisi2
	l.ori   	r4,r3,0	 # move reg to reg
	l.lwz   	r3,-28(r2)	 # SI load
	l.sfles 	r4,r3 # cmpsi_le
	l.bf	.L1154
	l.nop			# nop delay slot
	l.lwz   	r3,-44(r2)	 # SI load
	l.ori   	r4,r3,0	 # move reg to reg
	l.lwz   	r3,-24(r2)	 # SI load
	l.add   	r3,r3,r4 # addsi3
	l.lbz   	r3,0(r3)	 # zero_extendqisi2
	l.ori   	r4,r3,0	 # move reg to reg
	l.lwz   	r3,-28(r2)	 # SI load
	l.sfles 	r4,r3 # cmpsi_le
	l.bf	.L1155
	l.nop			# nop delay slot
	l.lwz   	r3,-40(r2)	 # SI load
	l.ori   	r4,r3,0	 # move reg to reg
	l.lwz   	r3,-24(r2)	 # SI load
	l.add   	r3,r3,r4 # addsi3
	l.lbz   	r3,0(r3)	 # zero_extendqisi2
	l.ori   	r4,r3,0	 # move reg to reg
	l.lwz   	r3,-28(r2)	 # SI load
	l.sfgts 	r4,r3 # cmpsi_gt
	l.bf	.L13
	l.nop			# nop delay slot
	l.j     	.L14 # jump_internal
	l.nop			# nop delay slot
.L466:
	l.lwz   	r3,-48(r2)	 # SI load
	l.ori   	r4,r3,0	 # move reg to reg
	l.lwz   	r3,-24(r2)	 # SI load
	l.add   	r3,r3,r4 # addsi3
	l.lbz   	r3,0(r3)	 # zero_extendqisi2
	l.ori   	r4,r3,0	 # move reg to reg
	l.lwz   	r3,-28(r2)	 # SI load
	l.sfles 	r4,r3 # cmpsi_le
	l.bf	.L1156
	l.nop			# nop delay slot
	l.lwz   	r3,-44(r2)	 # SI load
	l.ori   	r4,r3,0	 # move reg to reg
	l.lwz   	r3,-24(r2)	 # SI load
	l.add   	r3,r3,r4 # addsi3
	l.lbz   	r3,0(r3)	 # zero_extendqisi2
	l.ori   	r4,r3,0	 # move reg to reg
	l.lwz   	r3,-28(r2)	 # SI load
	l.sfles 	r4,r3 # cmpsi_le
	l.bf	.L1157
	l.nop			# nop delay slot
	l.lwz   	r3,-40(r2)	 # SI load
	l.ori   	r4,r3,0	 # move reg to reg
	l.lwz   	r3,-24(r2)	 # SI load
	l.add   	r3,r3,r4 # addsi3
	l.lbz   	r3,0(r3)	 # zero_extendqisi2
	l.ori   	r4,r3,0	 # move reg to reg
	l.lwz   	r3,-28(r2)	 # SI load
	l.sfles 	r4,r3 # cmpsi_le
	l.bf	.L1158
	l.nop			# nop delay slot
	l.lwz   	r3,-36(r2)	 # SI load
	l.ori   	r4,r3,0	 # move reg to reg
	l.lwz   	r3,-24(r2)	 # SI load
	l.add   	r3,r3,r4 # addsi3
	l.lbz   	r3,0(r3)	 # zero_extendqisi2
	l.ori   	r4,r3,0	 # move reg to reg
	l.lwz   	r3,-28(r2)	 # SI load
	l.sfgts 	r4,r3 # cmpsi_gt
	l.bf	.L13
	l.nop			# nop delay slot
	l.j     	.L14 # jump_internal
	l.nop			# nop delay slot
.L461:
	l.lwz   	r3,-56(r2)	 # SI load
	l.ori   	r4,r3,0	 # move reg to reg
	l.lwz   	r3,-24(r2)	 # SI load
	l.add   	r3,r3,r4 # addsi3
	l.lbz   	r3,0(r3)	 # zero_extendqisi2
	l.ori   	r4,r3,0	 # move reg to reg
	l.lwz   	r3,-32(r2)	 # SI load
	l.sfges 	r4,r3 # cmpsi_ge
	l.bf	.L1159
	l.nop			# nop delay slot
	l.lwz   	r3,-52(r2)	 # SI load
	l.ori   	r4,r3,0	 # move reg to reg
	l.lwz   	r3,-24(r2)	 # SI load
	l.add   	r3,r3,r4 # addsi3
	l.lbz   	r3,0(r3)	 # zero_extendqisi2
	l.ori   	r4,r3,0	 # move reg to reg
	l.lwz   	r3,-32(r2)	 # SI load
	l.sfges 	r4,r3 # cmpsi_ge
	l.bf	.L1160
	l.nop			# nop delay slot
	l.lwz   	r3,-48(r2)	 # SI load
	l.ori   	r4,r3,0	 # move reg to reg
	l.lwz   	r3,-24(r2)	 # SI load
	l.add   	r3,r3,r4 # addsi3
	l.lbz   	r3,0(r3)	 # zero_extendqisi2
	l.ori   	r4,r3,0	 # move reg to reg
	l.lwz   	r3,-32(r2)	 # SI load
	l.sfges 	r4,r3 # cmpsi_ge
	l.bf	.L1161
	l.nop			# nop delay slot
	l.lwz   	r3,-44(r2)	 # SI load
	l.ori   	r4,r3,0	 # move reg to reg
	l.lwz   	r3,-24(r2)	 # SI load
	l.add   	r3,r3,r4 # addsi3
	l.lbz   	r3,0(r3)	 # zero_extendqisi2
	l.ori   	r4,r3,0	 # move reg to reg
	l.lwz   	r3,-32(r2)	 # SI load
	l.sfges 	r4,r3 # cmpsi_ge
	l.bf	.L477
	l.nop			# nop delay slot
	l.lwz   	r3,-40(r2)	 # SI load
	l.ori   	r4,r3,0	 # move reg to reg
	l.lwz   	r3,-24(r2)	 # SI load
	l.add   	r3,r3,r4 # addsi3
	l.lbz   	r3,0(r3)	 # zero_extendqisi2
	l.ori   	r4,r3,0	 # move reg to reg
	l.lwz   	r3,-32(r2)	 # SI load
	l.sfges 	r4,r3 # cmpsi_ge
	l.bf	.L478
	l.nop			# nop delay slot
	l.lwz   	r3,-36(r2)	 # SI load
	l.ori   	r4,r3,0	 # move reg to reg
	l.lwz   	r3,-24(r2)	 # SI load
	l.add   	r3,r3,r4 # addsi3
	l.lbz   	r3,0(r3)	 # zero_extendqisi2
	l.ori   	r4,r3,0	 # move reg to reg
	l.lwz   	r3,-32(r2)	 # SI load
	l.sflts 	r4,r3 # cmpsi_lt
	l.bf	.L13
	l.nop			# nop delay slot
	l.lwz   	r3,-72(r2)	 # SI load
	l.ori   	r4,r3,0	 # move reg to reg
	l.lwz   	r3,-24(r2)	 # SI load
	l.add   	r3,r3,r4 # addsi3
	l.lbz   	r3,0(r3)	 # zero_extendqisi2
	l.ori   	r4,r3,0	 # move reg to reg
	l.lwz   	r3,-32(r2)	 # SI load
	l.sfges 	r4,r3 # cmpsi_ge
	l.bf	.L1162
	l.nop			# nop delay slot
	l.lwz   	r3,-68(r2)	 # SI load
	l.ori   	r4,r3,0	 # move reg to reg
	l.lwz   	r3,-24(r2)	 # SI load
	l.add   	r3,r3,r4 # addsi3
	l.lbz   	r3,0(r3)	 # zero_extendqisi2
	l.ori   	r4,r3,0	 # move reg to reg
	l.lwz   	r3,-32(r2)	 # SI load
	l.sfges 	r4,r3 # cmpsi_ge
	l.bf	.L1163
	l.nop			# nop delay slot
	l.lwz   	r3,-64(r2)	 # SI load
	l.ori   	r4,r3,0	 # move reg to reg
	l.lwz   	r3,-24(r2)	 # SI load
	l.add   	r3,r3,r4 # addsi3
	l.lbz   	r3,0(r3)	 # zero_extendqisi2
	l.ori   	r4,r3,0	 # move reg to reg
	l.lwz   	r3,-32(r2)	 # SI load
	l.sfges 	r4,r3 # cmpsi_ge
	l.bf	.L1164
	l.nop			# nop delay slot
	l.lwz   	r3,-60(r2)	 # SI load
	l.ori   	r4,r3,0	 # move reg to reg
	l.lwz   	r3,-24(r2)	 # SI load
	l.add   	r3,r3,r4 # addsi3
	l.lbz   	r3,0(r3)	 # zero_extendqisi2
	l.ori   	r4,r3,0	 # move reg to reg
	l.lwz   	r3,-32(r2)	 # SI load
	l.sflts 	r4,r3 # cmpsi_lt
	l.bf	.L13
	l.nop			# nop delay slot
	l.j     	.L14 # jump_internal
	l.nop			# nop delay slot
.L478:
	l.lwz   	r3,-76(r2)	 # SI load
	l.ori   	r4,r3,0	 # move reg to reg
	l.lwz   	r3,-24(r2)	 # SI load
	l.add   	r3,r3,r4 # addsi3
	l.lbz   	r3,0(r3)	 # zero_extendqisi2
	l.ori   	r4,r3,0	 # move reg to reg
	l.lwz   	r3,-32(r2)	 # SI load
	l.sfges 	r4,r3 # cmpsi_ge
	l.bf	.L1165
	l.nop			# nop delay slot
	l.lwz   	r3,-72(r2)	 # SI load
	l.ori   	r4,r3,0	 # move reg to reg
	l.lwz   	r3,-24(r2)	 # SI load
	l.add   	r3,r3,r4 # addsi3
	l.lbz   	r3,0(r3)	 # zero_extendqisi2
	l.ori   	r4,r3,0	 # move reg to reg
	l.lwz   	r3,-32(r2)	 # SI load
	l.sfges 	r4,r3 # cmpsi_ge
	l.bf	.L1166
	l.nop			# nop delay slot
	l.lwz   	r3,-68(r2)	 # SI load
	l.ori   	r4,r3,0	 # move reg to reg
	l.lwz   	r3,-24(r2)	 # SI load
	l.add   	r3,r3,r4 # addsi3
	l.lbz   	r3,0(r3)	 # zero_extendqisi2
	l.ori   	r4,r3,0	 # move reg to reg
	l.lwz   	r3,-32(r2)	 # SI load
	l.sfges 	r4,r3 # cmpsi_ge
	l.bf	.L1167
	l.nop			# nop delay slot
	l.lwz   	r3,-64(r2)	 # SI load
	l.ori   	r4,r3,0	 # move reg to reg
	l.lwz   	r3,-24(r2)	 # SI load
	l.add   	r3,r3,r4 # addsi3
	l.lbz   	r3,0(r3)	 # zero_extendqisi2
	l.ori   	r4,r3,0	 # move reg to reg
	l.lwz   	r3,-32(r2)	 # SI load
	l.sfges 	r4,r3 # cmpsi_ge
	l.bf	.L1168
	l.nop			# nop delay slot
	l.lwz   	r3,-60(r2)	 # SI load
	l.ori   	r4,r3,0	 # move reg to reg
	l.lwz   	r3,-24(r2)	 # SI load
	l.add   	r3,r3,r4 # addsi3
	l.lbz   	r3,0(r3)	 # zero_extendqisi2
	l.ori   	r4,r3,0	 # move reg to reg
	l.lwz   	r3,-32(r2)	 # SI load
	l.sflts 	r4,r3 # cmpsi_lt
	l.bf	.L13
	l.nop			# nop delay slot
	l.j     	.L14 # jump_internal
	l.nop			# nop delay slot
.L477:
	l.lwz   	r3,-80(r2)	 # SI load
	l.ori   	r4,r3,0	 # move reg to reg
	l.lwz   	r3,-24(r2)	 # SI load
	l.add   	r3,r3,r4 # addsi3
	l.lbz   	r3,0(r3)	 # zero_extendqisi2
	l.ori   	r4,r3,0	 # move reg to reg
	l.lwz   	r3,-32(r2)	 # SI load
	l.sfges 	r4,r3 # cmpsi_ge
	l.bf	.L1169
	l.nop			# nop delay slot
	l.lwz   	r3,-76(r2)	 # SI load
	l.ori   	r4,r3,0	 # move reg to reg
	l.lwz   	r3,-24(r2)	 # SI load
	l.add   	r3,r3,r4 # addsi3
	l.lbz   	r3,0(r3)	 # zero_extendqisi2
	l.ori   	r4,r3,0	 # move reg to reg
	l.lwz   	r3,-32(r2)	 # SI load
	l.sfges 	r4,r3 # cmpsi_ge
	l.bf	.L1170
	l.nop			# nop delay slot
	l.lwz   	r3,-72(r2)	 # SI load
	l.ori   	r4,r3,0	 # move reg to reg
	l.lwz   	r3,-24(r2)	 # SI load
	l.add   	r3,r3,r4 # addsi3
	l.lbz   	r3,0(r3)	 # zero_extendqisi2
	l.ori   	r4,r3,0	 # move reg to reg
	l.lwz   	r3,-32(r2)	 # SI load
	l.sfges 	r4,r3 # cmpsi_ge
	l.bf	.L1171
	l.nop			# nop delay slot
	l.lwz   	r3,-68(r2)	 # SI load
	l.ori   	r4,r3,0	 # move reg to reg
	l.lwz   	r3,-24(r2)	 # SI load
	l.add   	r3,r3,r4 # addsi3
	l.lbz   	r3,0(r3)	 # zero_extendqisi2
	l.ori   	r4,r3,0	 # move reg to reg
	l.lwz   	r3,-32(r2)	 # SI load
	l.sfges 	r4,r3 # cmpsi_ge
	l.bf	.L1172
	l.nop			# nop delay slot
	l.lwz   	r3,-64(r2)	 # SI load
	l.ori   	r4,r3,0	 # move reg to reg
	l.lwz   	r3,-24(r2)	 # SI load
	l.add   	r3,r3,r4 # addsi3
	l.lbz   	r3,0(r3)	 # zero_extendqisi2
	l.ori   	r4,r3,0	 # move reg to reg
	l.lwz   	r3,-32(r2)	 # SI load
	l.sfges 	r4,r3 # cmpsi_ge
	l.bf	.L1173
	l.nop			# nop delay slot
	l.lwz   	r3,-60(r2)	 # SI load
	l.ori   	r4,r3,0	 # move reg to reg
	l.lwz   	r3,-24(r2)	 # SI load
	l.add   	r3,r3,r4 # addsi3
	l.lbz   	r3,0(r3)	 # zero_extendqisi2
	l.ori   	r4,r3,0	 # move reg to reg
	l.lwz   	r3,-32(r2)	 # SI load
	l.sflts 	r4,r3 # cmpsi_lt
	l.bf	.L13
	l.nop			# nop delay slot
	l.j     	.L14 # jump_internal
	l.nop			# nop delay slot
.L460:
	l.lwz   	r3,-84(r2)	 # SI load
	l.ori   	r4,r3,0	 # move reg to reg
	l.lwz   	r3,-24(r2)	 # SI load
	l.add   	r3,r3,r4 # addsi3
	l.lbz   	r3,0(r3)	 # zero_extendqisi2
	l.ori   	r4,r3,0	 # move reg to reg
	l.lwz   	r3,-32(r2)	 # SI load
	l.sfges 	r4,r3 # cmpsi_ge
	l.bf	.L491
	l.nop			# nop delay slot
	l.lwz   	r3,-80(r2)	 # SI load
	l.ori   	r4,r3,0	 # move reg to reg
	l.lwz   	r3,-24(r2)	 # SI load
	l.add   	r3,r3,r4 # addsi3
	l.lbz   	r3,0(r3)	 # zero_extendqisi2
	l.ori   	r4,r3,0	 # move reg to reg
	l.lwz   	r3,-28(r2)	 # SI load
	l.sfles 	r4,r3 # cmpsi_le
	l.bf	.L492
	l.nop			# nop delay slot
	l.lwz   	r3,-44(r2)	 # SI load
	l.ori   	r4,r3,0	 # move reg to reg
	l.lwz   	r3,-24(r2)	 # SI load
	l.add   	r3,r3,r4 # addsi3
	l.lbz   	r3,0(r3)	 # zero_extendqisi2
	l.ori   	r4,r3,0	 # move reg to reg
	l.lwz   	r3,-28(r2)	 # SI load
	l.sfles 	r4,r3 # cmpsi_le
	l.bf	.L493
	l.nop			# nop delay slot
	l.lwz   	r3,-68(r2)	 # SI load
	l.ori   	r4,r3,0	 # move reg to reg
	l.lwz   	r3,-24(r2)	 # SI load
	l.add   	r3,r3,r4 # addsi3
	l.lbz   	r3,0(r3)	 # zero_extendqisi2
	l.ori   	r4,r3,0	 # move reg to reg
	l.lwz   	r3,-28(r2)	 # SI load
	l.sfles 	r4,r3 # cmpsi_le
	l.bf	.L1174
	l.nop			# nop delay slot
	l.lwz   	r3,-64(r2)	 # SI load
	l.ori   	r4,r3,0	 # move reg to reg
	l.lwz   	r3,-24(r2)	 # SI load
	l.add   	r3,r3,r4 # addsi3
	l.lbz   	r3,0(r3)	 # zero_extendqisi2
	l.ori   	r4,r3,0	 # move reg to reg
	l.lwz   	r3,-28(r2)	 # SI load
	l.sfles 	r4,r3 # cmpsi_le
	l.bf	.L1175
	l.nop			# nop delay slot
	l.lwz   	r3,-60(r2)	 # SI load
	l.ori   	r4,r3,0	 # move reg to reg
	l.lwz   	r3,-24(r2)	 # SI load
	l.add   	r3,r3,r4 # addsi3
	l.lbz   	r3,0(r3)	 # zero_extendqisi2
	l.ori   	r4,r3,0	 # move reg to reg
	l.lwz   	r3,-28(r2)	 # SI load
	l.sfles 	r4,r3 # cmpsi_le
	l.bf	.L1176
	l.nop			# nop delay slot
	l.lwz   	r3,-56(r2)	 # SI load
	l.ori   	r4,r3,0	 # move reg to reg
	l.lwz   	r3,-24(r2)	 # SI load
	l.add   	r3,r3,r4 # addsi3
	l.lbz   	r3,0(r3)	 # zero_extendqisi2
	l.ori   	r4,r3,0	 # move reg to reg
	l.lwz   	r3,-28(r2)	 # SI load
	l.sfles 	r4,r3 # cmpsi_le
	l.bf	.L1177
	l.nop			# nop delay slot
	l.lwz   	r3,-52(r2)	 # SI load
	l.ori   	r4,r3,0	 # move reg to reg
	l.lwz   	r3,-24(r2)	 # SI load
	l.add   	r3,r3,r4 # addsi3
	l.lbz   	r3,0(r3)	 # zero_extendqisi2
	l.ori   	r4,r3,0	 # move reg to reg
	l.lwz   	r3,-28(r2)	 # SI load
	l.sfles 	r4,r3 # cmpsi_le
	l.bf	.L1178
	l.nop			# nop delay slot
	l.lwz   	r3,-48(r2)	 # SI load
	l.ori   	r4,r3,0	 # move reg to reg
	l.lwz   	r3,-24(r2)	 # SI load
	l.add   	r3,r3,r4 # addsi3
	l.lbz   	r3,0(r3)	 # zero_extendqisi2
	l.ori   	r4,r3,0	 # move reg to reg
	l.lwz   	r3,-28(r2)	 # SI load
	l.sfles 	r4,r3 # cmpsi_le
	l.bf	.L1179
	l.nop			# nop delay slot
	l.lwz   	r3,-72(r2)	 # SI load
	l.ori   	r4,r3,0	 # move reg to reg
	l.lwz   	r3,-24(r2)	 # SI load
	l.add   	r3,r3,r4 # addsi3
	l.lbz   	r3,0(r3)	 # zero_extendqisi2
	l.ori   	r4,r3,0	 # move reg to reg
	l.lwz   	r3,-28(r2)	 # SI load
	l.sfles 	r4,r3 # cmpsi_le
	l.bf	.L500
	l.nop			# nop delay slot
	l.lwz   	r3,-76(r2)	 # SI load
	l.ori   	r4,r3,0	 # move reg to reg
	l.lwz   	r3,-24(r2)	 # SI load
	l.add   	r3,r3,r4 # addsi3
	l.lbz   	r3,0(r3)	 # zero_extendqisi2
	l.ori   	r4,r3,0	 # move reg to reg
	l.lwz   	r3,-28(r2)	 # SI load
	l.sfgts 	r4,r3 # cmpsi_gt
	l.bf	.L13
	l.nop			# nop delay slot
	l.lwz   	r3,-40(r2)	 # SI load
	l.ori   	r4,r3,0	 # move reg to reg
	l.lwz   	r3,-24(r2)	 # SI load
	l.add   	r3,r3,r4 # addsi3
	l.lbz   	r3,0(r3)	 # zero_extendqisi2
	l.ori   	r4,r3,0	 # move reg to reg
	l.lwz   	r3,-28(r2)	 # SI load
	l.sfgts 	r4,r3 # cmpsi_gt
	l.bf	.L13
	l.nop			# nop delay slot
	l.j     	.L14 # jump_internal
	l.nop			# nop delay slot
.L500:
	l.lwz   	r3,-40(r2)	 # SI load
	l.ori   	r4,r3,0	 # move reg to reg
	l.lwz   	r3,-24(r2)	 # SI load
	l.add   	r3,r3,r4 # addsi3
	l.lbz   	r3,0(r3)	 # zero_extendqisi2
	l.ori   	r4,r3,0	 # move reg to reg
	l.lwz   	r3,-28(r2)	 # SI load
	l.sfles 	r4,r3 # cmpsi_le
	l.bf	.L1180
	l.nop			# nop delay slot
	l.lwz   	r3,-36(r2)	 # SI load
	l.ori   	r4,r3,0	 # move reg to reg
	l.lwz   	r3,-24(r2)	 # SI load
	l.add   	r3,r3,r4 # addsi3
	l.lbz   	r3,0(r3)	 # zero_extendqisi2
	l.ori   	r4,r3,0	 # move reg to reg
	l.lwz   	r3,-28(r2)	 # SI load
	l.sfgts 	r4,r3 # cmpsi_gt
	l.bf	.L13
	l.nop			# nop delay slot
	l.j     	.L14 # jump_internal
	l.nop			# nop delay slot
.L493:
	l.lwz   	r3,-44(r2)	 # SI load
	l.ori   	r4,r3,0	 # move reg to reg
	l.lwz   	r3,-24(r2)	 # SI load
	l.add   	r3,r3,r4 # addsi3
	l.lbz   	r3,0(r3)	 # zero_extendqisi2
	l.ori   	r4,r3,0	 # move reg to reg
	l.lwz   	r3,-32(r2)	 # SI load
	l.sfges 	r4,r3 # cmpsi_ge
	l.bf	.L502
	l.nop			# nop delay slot
	l.lwz   	r3,-52(r2)	 # SI load
	l.ori   	r4,r3,0	 # move reg to reg
	l.lwz   	r3,-24(r2)	 # SI load
	l.add   	r3,r3,r4 # addsi3
	l.lbz   	r3,0(r3)	 # zero_extendqisi2
	l.ori   	r4,r3,0	 # move reg to reg
	l.lwz   	r3,-28(r2)	 # SI load
	l.sfles 	r4,r3 # cmpsi_le
	l.bf	.L503
	l.nop			# nop delay slot
	l.lwz   	r3,-76(r2)	 # SI load
	l.ori   	r4,r3,0	 # move reg to reg
	l.lwz   	r3,-24(r2)	 # SI load
	l.add   	r3,r3,r4 # addsi3
	l.lbz   	r3,0(r3)	 # zero_extendqisi2
	l.ori   	r4,r3,0	 # move reg to reg
	l.lwz   	r3,-28(r2)	 # SI load
	l.sfles 	r4,r3 # cmpsi_le
	l.bf	.L1181
	l.nop			# nop delay slot
	l.lwz   	r3,-72(r2)	 # SI load
	l.ori   	r4,r3,0	 # move reg to reg
	l.lwz   	r3,-24(r2)	 # SI load
	l.add   	r3,r3,r4 # addsi3
	l.lbz   	r3,0(r3)	 # zero_extendqisi2
	l.ori   	r4,r3,0	 # move reg to reg
	l.lwz   	r3,-28(r2)	 # SI load
	l.sfles 	r4,r3 # cmpsi_le
	l.bf	.L1182
	l.nop			# nop delay slot
	l.lwz   	r3,-68(r2)	 # SI load
	l.ori   	r4,r3,0	 # move reg to reg
	l.lwz   	r3,-24(r2)	 # SI load
	l.add   	r3,r3,r4 # addsi3
	l.lbz   	r3,0(r3)	 # zero_extendqisi2
	l.ori   	r4,r3,0	 # move reg to reg
	l.lwz   	r3,-28(r2)	 # SI load
	l.sfles 	r4,r3 # cmpsi_le
	l.bf	.L1183
	l.nop			# nop delay slot
	l.lwz   	r3,-64(r2)	 # SI load
	l.ori   	r4,r3,0	 # move reg to reg
	l.lwz   	r3,-24(r2)	 # SI load
	l.add   	r3,r3,r4 # addsi3
	l.lbz   	r3,0(r3)	 # zero_extendqisi2
	l.ori   	r4,r3,0	 # move reg to reg
	l.lwz   	r3,-28(r2)	 # SI load
	l.sfles 	r4,r3 # cmpsi_le
	l.bf	.L1184
	l.nop			# nop delay slot
	l.lwz   	r3,-60(r2)	 # SI load
	l.ori   	r4,r3,0	 # move reg to reg
	l.lwz   	r3,-24(r2)	 # SI load
	l.add   	r3,r3,r4 # addsi3
	l.lbz   	r3,0(r3)	 # zero_extendqisi2
	l.ori   	r4,r3,0	 # move reg to reg
	l.lwz   	r3,-28(r2)	 # SI load
	l.sfles 	r4,r3 # cmpsi_le
	l.bf	.L1185
	l.nop			# nop delay slot
	l.lwz   	r3,-56(r2)	 # SI load
	l.ori   	r4,r3,0	 # move reg to reg
	l.lwz   	r3,-24(r2)	 # SI load
	l.add   	r3,r3,r4 # addsi3
	l.lbz   	r3,0(r3)	 # zero_extendqisi2
	l.ori   	r4,r3,0	 # move reg to reg
	l.lwz   	r3,-28(r2)	 # SI load
	l.sfles 	r4,r3 # cmpsi_le
	l.bf	.L1186
	l.nop			# nop delay slot
	l.lwz   	r3,-48(r2)	 # SI load
	l.ori   	r4,r3,0	 # move reg to reg
	l.lwz   	r3,-24(r2)	 # SI load
	l.add   	r3,r3,r4 # addsi3
	l.lbz   	r3,0(r3)	 # zero_extendqisi2
	l.ori   	r4,r3,0	 # move reg to reg
	l.lwz   	r3,-28(r2)	 # SI load
	l.sfgts 	r4,r3 # cmpsi_gt
	l.bf	.L13
	l.nop			# nop delay slot
	l.j     	.L14 # jump_internal
	l.nop			# nop delay slot
.L503:
	l.lwz   	r3,-52(r2)	 # SI load
	l.ori   	r4,r3,0	 # move reg to reg
	l.lwz   	r3,-24(r2)	 # SI load
	l.add   	r3,r3,r4 # addsi3
	l.lbz   	r3,0(r3)	 # zero_extendqisi2
	l.ori   	r4,r3,0	 # move reg to reg
	l.lwz   	r3,-32(r2)	 # SI load
	l.sfges 	r4,r3 # cmpsi_ge
	l.bf	.L1187
	l.nop			# nop delay slot
	l.lwz   	r3,-48(r2)	 # SI load
	l.ori   	r4,r3,0	 # move reg to reg
	l.lwz   	r3,-24(r2)	 # SI load
	l.add   	r3,r3,r4 # addsi3
	l.lbz   	r3,0(r3)	 # zero_extendqisi2
	l.ori   	r4,r3,0	 # move reg to reg
	l.lwz   	r3,-32(r2)	 # SI load
	l.sfges 	r4,r3 # cmpsi_ge
	l.bf	.L1188
	l.nop			# nop delay slot
	l.lwz   	r3,-40(r2)	 # SI load
	l.ori   	r4,r3,0	 # move reg to reg
	l.lwz   	r3,-24(r2)	 # SI load
	l.add   	r3,r3,r4 # addsi3
	l.lbz   	r3,0(r3)	 # zero_extendqisi2
	l.ori   	r4,r3,0	 # move reg to reg
	l.lwz   	r3,-32(r2)	 # SI load
	l.sfges 	r4,r3 # cmpsi_ge
	l.bf	.L512
	l.nop			# nop delay slot
	l.lwz   	r3,-36(r2)	 # SI load
	l.ori   	r4,r3,0	 # move reg to reg
	l.lwz   	r3,-24(r2)	 # SI load
	l.add   	r3,r3,r4 # addsi3
	l.lbz   	r3,0(r3)	 # zero_extendqisi2
	l.ori   	r4,r3,0	 # move reg to reg
	l.lwz   	r3,-32(r2)	 # SI load
	l.sflts 	r4,r3 # cmpsi_lt
	l.bf	.L13
	l.nop			# nop delay slot
	l.lwz   	r3,-72(r2)	 # SI load
	l.ori   	r4,r3,0	 # move reg to reg
	l.lwz   	r3,-24(r2)	 # SI load
	l.add   	r3,r3,r4 # addsi3
	l.lbz   	r3,0(r3)	 # zero_extendqisi2
	l.ori   	r4,r3,0	 # move reg to reg
	l.lwz   	r3,-32(r2)	 # SI load
	l.sfges 	r4,r3 # cmpsi_ge
	l.bf	.L1189
	l.nop			# nop delay slot
	l.lwz   	r3,-68(r2)	 # SI load
	l.ori   	r4,r3,0	 # move reg to reg
	l.lwz   	r3,-24(r2)	 # SI load
	l.add   	r3,r3,r4 # addsi3
	l.lbz   	r3,0(r3)	 # zero_extendqisi2
	l.ori   	r4,r3,0	 # move reg to reg
	l.lwz   	r3,-32(r2)	 # SI load
	l.sfges 	r4,r3 # cmpsi_ge
	l.bf	.L1190
	l.nop			# nop delay slot
	l.lwz   	r3,-64(r2)	 # SI load
	l.ori   	r4,r3,0	 # move reg to reg
	l.lwz   	r3,-24(r2)	 # SI load
	l.add   	r3,r3,r4 # addsi3
	l.lbz   	r3,0(r3)	 # zero_extendqisi2
	l.ori   	r4,r3,0	 # move reg to reg
	l.lwz   	r3,-32(r2)	 # SI load
	l.sfges 	r4,r3 # cmpsi_ge
	l.bf	.L1191
	l.nop			# nop delay slot
	l.lwz   	r3,-60(r2)	 # SI load
	l.ori   	r4,r3,0	 # move reg to reg
	l.lwz   	r3,-24(r2)	 # SI load
	l.add   	r3,r3,r4 # addsi3
	l.lbz   	r3,0(r3)	 # zero_extendqisi2
	l.ori   	r4,r3,0	 # move reg to reg
	l.lwz   	r3,-32(r2)	 # SI load
	l.sfges 	r4,r3 # cmpsi_ge
	l.bf	.L1192
	l.nop			# nop delay slot
	l.lwz   	r3,-56(r2)	 # SI load
	l.ori   	r4,r3,0	 # move reg to reg
	l.lwz   	r3,-24(r2)	 # SI load
	l.add   	r3,r3,r4 # addsi3
	l.lbz   	r3,0(r3)	 # zero_extendqisi2
	l.ori   	r4,r3,0	 # move reg to reg
	l.lwz   	r3,-32(r2)	 # SI load
	l.sflts 	r4,r3 # cmpsi_lt
	l.bf	.L13
	l.nop			# nop delay slot
	l.j     	.L14 # jump_internal
	l.nop			# nop delay slot
.L512:
	l.lwz   	r3,-76(r2)	 # SI load
	l.ori   	r4,r3,0	 # move reg to reg
	l.lwz   	r3,-24(r2)	 # SI load
	l.add   	r3,r3,r4 # addsi3
	l.lbz   	r3,0(r3)	 # zero_extendqisi2
	l.ori   	r4,r3,0	 # move reg to reg
	l.lwz   	r3,-32(r2)	 # SI load
	l.sfges 	r4,r3 # cmpsi_ge
	l.bf	.L1193
	l.nop			# nop delay slot
	l.lwz   	r3,-72(r2)	 # SI load
	l.ori   	r4,r3,0	 # move reg to reg
	l.lwz   	r3,-24(r2)	 # SI load
	l.add   	r3,r3,r4 # addsi3
	l.lbz   	r3,0(r3)	 # zero_extendqisi2
	l.ori   	r4,r3,0	 # move reg to reg
	l.lwz   	r3,-32(r2)	 # SI load
	l.sfges 	r4,r3 # cmpsi_ge
	l.bf	.L1194
	l.nop			# nop delay slot
	l.lwz   	r3,-68(r2)	 # SI load
	l.ori   	r4,r3,0	 # move reg to reg
	l.lwz   	r3,-24(r2)	 # SI load
	l.add   	r3,r3,r4 # addsi3
	l.lbz   	r3,0(r3)	 # zero_extendqisi2
	l.ori   	r4,r3,0	 # move reg to reg
	l.lwz   	r3,-32(r2)	 # SI load
	l.sfges 	r4,r3 # cmpsi_ge
	l.bf	.L1195
	l.nop			# nop delay slot
	l.lwz   	r3,-64(r2)	 # SI load
	l.ori   	r4,r3,0	 # move reg to reg
	l.lwz   	r3,-24(r2)	 # SI load
	l.add   	r3,r3,r4 # addsi3
	l.lbz   	r3,0(r3)	 # zero_extendqisi2
	l.ori   	r4,r3,0	 # move reg to reg
	l.lwz   	r3,-32(r2)	 # SI load
	l.sfges 	r4,r3 # cmpsi_ge
	l.bf	.L1196
	l.nop			# nop delay slot
	l.lwz   	r3,-60(r2)	 # SI load
	l.ori   	r4,r3,0	 # move reg to reg
	l.lwz   	r3,-24(r2)	 # SI load
	l.add   	r3,r3,r4 # addsi3
	l.lbz   	r3,0(r3)	 # zero_extendqisi2
	l.ori   	r4,r3,0	 # move reg to reg
	l.lwz   	r3,-32(r2)	 # SI load
	l.sfges 	r4,r3 # cmpsi_ge
	l.bf	.L1197
	l.nop			# nop delay slot
	l.lwz   	r3,-56(r2)	 # SI load
	l.ori   	r4,r3,0	 # move reg to reg
	l.lwz   	r3,-24(r2)	 # SI load
	l.add   	r3,r3,r4 # addsi3
	l.lbz   	r3,0(r3)	 # zero_extendqisi2
	l.ori   	r4,r3,0	 # move reg to reg
	l.lwz   	r3,-32(r2)	 # SI load
	l.sflts 	r4,r3 # cmpsi_lt
	l.bf	.L13
	l.nop			# nop delay slot
	l.j     	.L14 # jump_internal
	l.nop			# nop delay slot
.L502:
	l.lwz   	r3,-76(r2)	 # SI load
	l.ori   	r4,r3,0	 # move reg to reg
	l.lwz   	r3,-24(r2)	 # SI load
	l.add   	r3,r3,r4 # addsi3
	l.lbz   	r3,0(r3)	 # zero_extendqisi2
	l.ori   	r4,r3,0	 # move reg to reg
	l.lwz   	r3,-28(r2)	 # SI load
	l.sfles 	r4,r3 # cmpsi_le
	l.bf	.L1198
	l.nop			# nop delay slot
	l.lwz   	r3,-72(r2)	 # SI load
	l.ori   	r4,r3,0	 # move reg to reg
	l.lwz   	r3,-24(r2)	 # SI load
	l.add   	r3,r3,r4 # addsi3
	l.lbz   	r3,0(r3)	 # zero_extendqisi2
	l.ori   	r4,r3,0	 # move reg to reg
	l.lwz   	r3,-28(r2)	 # SI load
	l.sfles 	r4,r3 # cmpsi_le
	l.bf	.L1199
	l.nop			# nop delay slot
	l.lwz   	r3,-68(r2)	 # SI load
	l.ori   	r4,r3,0	 # move reg to reg
	l.lwz   	r3,-24(r2)	 # SI load
	l.add   	r3,r3,r4 # addsi3
	l.lbz   	r3,0(r3)	 # zero_extendqisi2
	l.ori   	r4,r3,0	 # move reg to reg
	l.lwz   	r3,-28(r2)	 # SI load
	l.sfles 	r4,r3 # cmpsi_le
	l.bf	.L1200
	l.nop			# nop delay slot
	l.lwz   	r3,-64(r2)	 # SI load
	l.ori   	r4,r3,0	 # move reg to reg
	l.lwz   	r3,-24(r2)	 # SI load
	l.add   	r3,r3,r4 # addsi3
	l.lbz   	r3,0(r3)	 # zero_extendqisi2
	l.ori   	r4,r3,0	 # move reg to reg
	l.lwz   	r3,-28(r2)	 # SI load
	l.sfles 	r4,r3 # cmpsi_le
	l.bf	.L1201
	l.nop			# nop delay slot
	l.lwz   	r3,-60(r2)	 # SI load
	l.ori   	r4,r3,0	 # move reg to reg
	l.lwz   	r3,-24(r2)	 # SI load
	l.add   	r3,r3,r4 # addsi3
	l.lbz   	r3,0(r3)	 # zero_extendqisi2
	l.ori   	r4,r3,0	 # move reg to reg
	l.lwz   	r3,-28(r2)	 # SI load
	l.sfles 	r4,r3 # cmpsi_le
	l.bf	.L1202
	l.nop			# nop delay slot
	l.lwz   	r3,-56(r2)	 # SI load
	l.ori   	r4,r3,0	 # move reg to reg
	l.lwz   	r3,-24(r2)	 # SI load
	l.add   	r3,r3,r4 # addsi3
	l.lbz   	r3,0(r3)	 # zero_extendqisi2
	l.ori   	r4,r3,0	 # move reg to reg
	l.lwz   	r3,-28(r2)	 # SI load
	l.sfles 	r4,r3 # cmpsi_le
	l.bf	.L1203
	l.nop			# nop delay slot
	l.lwz   	r3,-52(r2)	 # SI load
	l.ori   	r4,r3,0	 # move reg to reg
	l.lwz   	r3,-24(r2)	 # SI load
	l.add   	r3,r3,r4 # addsi3
	l.lbz   	r3,0(r3)	 # zero_extendqisi2
	l.ori   	r4,r3,0	 # move reg to reg
	l.lwz   	r3,-28(r2)	 # SI load
	l.sfles 	r4,r3 # cmpsi_le
	l.bf	.L1204
	l.nop			# nop delay slot
	l.lwz   	r3,-48(r2)	 # SI load
	l.ori   	r4,r3,0	 # move reg to reg
	l.lwz   	r3,-24(r2)	 # SI load
	l.add   	r3,r3,r4 # addsi3
	l.lbz   	r3,0(r3)	 # zero_extendqisi2
	l.ori   	r4,r3,0	 # move reg to reg
	l.lwz   	r3,-28(r2)	 # SI load
	l.sfgts 	r4,r3 # cmpsi_gt
	l.bf	.L13
	l.nop			# nop delay slot
	l.j     	.L14 # jump_internal
	l.nop			# nop delay slot
.L492:
	l.lwz   	r3,-80(r2)	 # SI load
	l.ori   	r4,r3,0	 # move reg to reg
	l.lwz   	r3,-24(r2)	 # SI load
	l.add   	r3,r3,r4 # addsi3
	l.lbz   	r3,0(r3)	 # zero_extendqisi2
	l.ori   	r4,r3,0	 # move reg to reg
	l.lwz   	r3,-32(r2)	 # SI load
	l.sfges 	r4,r3 # cmpsi_ge
	l.bf	.L529
	l.nop			# nop delay slot
	l.lwz   	r3,-76(r2)	 # SI load
	l.ori   	r4,r3,0	 # move reg to reg
	l.lwz   	r3,-24(r2)	 # SI load
	l.add   	r3,r3,r4 # addsi3
	l.lbz   	r3,0(r3)	 # zero_extendqisi2
	l.ori   	r4,r3,0	 # move reg to reg
	l.lwz   	r3,-28(r2)	 # SI load
	l.sfles 	r4,r3 # cmpsi_le
	l.bf	.L530
	l.nop			# nop delay slot
	l.lwz   	r3,-40(r2)	 # SI load
	l.ori   	r4,r3,0	 # move reg to reg
	l.lwz   	r3,-24(r2)	 # SI load
	l.add   	r3,r3,r4 # addsi3
	l.lbz   	r3,0(r3)	 # zero_extendqisi2
	l.ori   	r4,r3,0	 # move reg to reg
	l.lwz   	r3,-28(r2)	 # SI load
	l.sfles 	r4,r3 # cmpsi_le
	l.bf	.L531
	l.nop			# nop delay slot
	l.lwz   	r3,-68(r2)	 # SI load
	l.ori   	r4,r3,0	 # move reg to reg
	l.lwz   	r3,-24(r2)	 # SI load
	l.add   	r3,r3,r4 # addsi3
	l.lbz   	r3,0(r3)	 # zero_extendqisi2
	l.ori   	r4,r3,0	 # move reg to reg
	l.lwz   	r3,-28(r2)	 # SI load
	l.sfles 	r4,r3 # cmpsi_le
	l.bf	.L1205
	l.nop			# nop delay slot
	l.lwz   	r3,-64(r2)	 # SI load
	l.ori   	r4,r3,0	 # move reg to reg
	l.lwz   	r3,-24(r2)	 # SI load
	l.add   	r3,r3,r4 # addsi3
	l.lbz   	r3,0(r3)	 # zero_extendqisi2
	l.ori   	r4,r3,0	 # move reg to reg
	l.lwz   	r3,-28(r2)	 # SI load
	l.sfles 	r4,r3 # cmpsi_le
	l.bf	.L1206
	l.nop			# nop delay slot
	l.lwz   	r3,-60(r2)	 # SI load
	l.ori   	r4,r3,0	 # move reg to reg
	l.lwz   	r3,-24(r2)	 # SI load
	l.add   	r3,r3,r4 # addsi3
	l.lbz   	r3,0(r3)	 # zero_extendqisi2
	l.ori   	r4,r3,0	 # move reg to reg
	l.lwz   	r3,-28(r2)	 # SI load
	l.sfles 	r4,r3 # cmpsi_le
	l.bf	.L1207
	l.nop			# nop delay slot
	l.lwz   	r3,-56(r2)	 # SI load
	l.ori   	r4,r3,0	 # move reg to reg
	l.lwz   	r3,-24(r2)	 # SI load
	l.add   	r3,r3,r4 # addsi3
	l.lbz   	r3,0(r3)	 # zero_extendqisi2
	l.ori   	r4,r3,0	 # move reg to reg
	l.lwz   	r3,-28(r2)	 # SI load
	l.sfles 	r4,r3 # cmpsi_le
	l.bf	.L1208
	l.nop			# nop delay slot
	l.lwz   	r3,-52(r2)	 # SI load
	l.ori   	r4,r3,0	 # move reg to reg
	l.lwz   	r3,-24(r2)	 # SI load
	l.add   	r3,r3,r4 # addsi3
	l.lbz   	r3,0(r3)	 # zero_extendqisi2
	l.ori   	r4,r3,0	 # move reg to reg
	l.lwz   	r3,-28(r2)	 # SI load
	l.sfles 	r4,r3 # cmpsi_le
	l.bf	.L1209
	l.nop			# nop delay slot
	l.lwz   	r3,-48(r2)	 # SI load
	l.ori   	r4,r3,0	 # move reg to reg
	l.lwz   	r3,-24(r2)	 # SI load
	l.add   	r3,r3,r4 # addsi3
	l.lbz   	r3,0(r3)	 # zero_extendqisi2
	l.ori   	r4,r3,0	 # move reg to reg
	l.lwz   	r3,-28(r2)	 # SI load
	l.sfles 	r4,r3 # cmpsi_le
	l.bf	.L1210
	l.nop			# nop delay slot
	l.lwz   	r3,-44(r2)	 # SI load
	l.ori   	r4,r3,0	 # move reg to reg
	l.lwz   	r3,-24(r2)	 # SI load
	l.add   	r3,r3,r4 # addsi3
	l.lbz   	r3,0(r3)	 # zero_extendqisi2
	l.ori   	r4,r3,0	 # move reg to reg
	l.lwz   	r3,-28(r2)	 # SI load
	l.sfles 	r4,r3 # cmpsi_le
	l.bf	.L1211
	l.nop			# nop delay slot
	l.lwz   	r3,-72(r2)	 # SI load
	l.ori   	r4,r3,0	 # move reg to reg
	l.lwz   	r3,-24(r2)	 # SI load
	l.add   	r3,r3,r4 # addsi3
	l.lbz   	r3,0(r3)	 # zero_extendqisi2
	l.ori   	r4,r3,0	 # move reg to reg
	l.lwz   	r3,-28(r2)	 # SI load
	l.sfgts 	r4,r3 # cmpsi_gt
	l.bf	.L13
	l.nop			# nop delay slot
	l.lwz   	r3,-36(r2)	 # SI load
	l.ori   	r4,r3,0	 # move reg to reg
	l.lwz   	r3,-24(r2)	 # SI load
	l.add   	r3,r3,r4 # addsi3
	l.lbz   	r3,0(r3)	 # zero_extendqisi2
	l.ori   	r4,r3,0	 # move reg to reg
	l.lwz   	r3,-28(r2)	 # SI load
	l.sfgts 	r4,r3 # cmpsi_gt
	l.bf	.L13
	l.nop			# nop delay slot
	l.j     	.L14 # jump_internal
	l.nop			# nop delay slot
.L531:
	l.lwz   	r3,-40(r2)	 # SI load
	l.ori   	r4,r3,0	 # move reg to reg
	l.lwz   	r3,-24(r2)	 # SI load
	l.add   	r3,r3,r4 # addsi3
	l.lbz   	r3,0(r3)	 # zero_extendqisi2
	l.ori   	r4,r3,0	 # move reg to reg
	l.lwz   	r3,-32(r2)	 # SI load
	l.sfges 	r4,r3 # cmpsi_ge
	l.bf	.L539
	l.nop			# nop delay slot
	l.lwz   	r3,-48(r2)	 # SI load
	l.ori   	r4,r3,0	 # move reg to reg
	l.lwz   	r3,-24(r2)	 # SI load
	l.add   	r3,r3,r4 # addsi3
	l.lbz   	r3,0(r3)	 # zero_extendqisi2
	l.ori   	r4,r3,0	 # move reg to reg
	l.lwz   	r3,-28(r2)	 # SI load
	l.sfles 	r4,r3 # cmpsi_le
	l.bf	.L540
	l.nop			# nop delay slot
	l.lwz   	r3,-72(r2)	 # SI load
	l.ori   	r4,r3,0	 # move reg to reg
	l.lwz   	r3,-24(r2)	 # SI load
	l.add   	r3,r3,r4 # addsi3
	l.lbz   	r3,0(r3)	 # zero_extendqisi2
	l.ori   	r4,r3,0	 # move reg to reg
	l.lwz   	r3,-28(r2)	 # SI load
	l.sfles 	r4,r3 # cmpsi_le
	l.bf	.L1212
	l.nop			# nop delay slot
	l.lwz   	r3,-68(r2)	 # SI load
	l.ori   	r4,r3,0	 # move reg to reg
	l.lwz   	r3,-24(r2)	 # SI load
	l.add   	r3,r3,r4 # addsi3
	l.lbz   	r3,0(r3)	 # zero_extendqisi2
	l.ori   	r4,r3,0	 # move reg to reg
	l.lwz   	r3,-28(r2)	 # SI load
	l.sfles 	r4,r3 # cmpsi_le
	l.bf	.L1213
	l.nop			# nop delay slot
	l.lwz   	r3,-64(r2)	 # SI load
	l.ori   	r4,r3,0	 # move reg to reg
	l.lwz   	r3,-24(r2)	 # SI load
	l.add   	r3,r3,r4 # addsi3
	l.lbz   	r3,0(r3)	 # zero_extendqisi2
	l.ori   	r4,r3,0	 # move reg to reg
	l.lwz   	r3,-28(r2)	 # SI load
	l.sfles 	r4,r3 # cmpsi_le
	l.bf	.L1214
	l.nop			# nop delay slot
	l.lwz   	r3,-60(r2)	 # SI load
	l.ori   	r4,r3,0	 # move reg to reg
	l.lwz   	r3,-24(r2)	 # SI load
	l.add   	r3,r3,r4 # addsi3
	l.lbz   	r3,0(r3)	 # zero_extendqisi2
	l.ori   	r4,r3,0	 # move reg to reg
	l.lwz   	r3,-28(r2)	 # SI load
	l.sfles 	r4,r3 # cmpsi_le
	l.bf	.L1215
	l.nop			# nop delay slot
	l.lwz   	r3,-56(r2)	 # SI load
	l.ori   	r4,r3,0	 # move reg to reg
	l.lwz   	r3,-24(r2)	 # SI load
	l.add   	r3,r3,r4 # addsi3
	l.lbz   	r3,0(r3)	 # zero_extendqisi2
	l.ori   	r4,r3,0	 # move reg to reg
	l.lwz   	r3,-28(r2)	 # SI load
	l.sfles 	r4,r3 # cmpsi_le
	l.bf	.L1216
	l.nop			# nop delay slot
	l.lwz   	r3,-52(r2)	 # SI load
	l.ori   	r4,r3,0	 # move reg to reg
	l.lwz   	r3,-24(r2)	 # SI load
	l.add   	r3,r3,r4 # addsi3
	l.lbz   	r3,0(r3)	 # zero_extendqisi2
	l.ori   	r4,r3,0	 # move reg to reg
	l.lwz   	r3,-28(r2)	 # SI load
	l.sfles 	r4,r3 # cmpsi_le
	l.bf	.L1217
	l.nop			# nop delay slot
	l.lwz   	r3,-44(r2)	 # SI load
	l.ori   	r4,r3,0	 # move reg to reg
	l.lwz   	r3,-24(r2)	 # SI load
	l.add   	r3,r3,r4 # addsi3
	l.lbz   	r3,0(r3)	 # zero_extendqisi2
	l.ori   	r4,r3,0	 # move reg to reg
	l.lwz   	r3,-28(r2)	 # SI load
	l.sfgts 	r4,r3 # cmpsi_gt
	l.bf	.L13
	l.nop			# nop delay slot
	l.j     	.L14 # jump_internal
	l.nop			# nop delay slot
.L540:
	l.lwz   	r3,-48(r2)	 # SI load
	l.ori   	r4,r3,0	 # move reg to reg
	l.lwz   	r3,-24(r2)	 # SI load
	l.add   	r3,r3,r4 # addsi3
	l.lbz   	r3,0(r3)	 # zero_extendqisi2
	l.ori   	r4,r3,0	 # move reg to reg
	l.lwz   	r3,-32(r2)	 # SI load
	l.sfges 	r4,r3 # cmpsi_ge
	l.bf	.L1218
	l.nop			# nop delay slot
	l.lwz   	r3,-44(r2)	 # SI load
	l.ori   	r4,r3,0	 # move reg to reg
	l.lwz   	r3,-24(r2)	 # SI load
	l.add   	r3,r3,r4 # addsi3
	l.lbz   	r3,0(r3)	 # zero_extendqisi2
	l.ori   	r4,r3,0	 # move reg to reg
	l.lwz   	r3,-32(r2)	 # SI load
	l.sfges 	r4,r3 # cmpsi_ge
	l.bf	.L1219
	l.nop			# nop delay slot
	l.lwz   	r3,-36(r2)	 # SI load
	l.ori   	r4,r3,0	 # move reg to reg
	l.lwz   	r3,-24(r2)	 # SI load
	l.add   	r3,r3,r4 # addsi3
	l.lbz   	r3,0(r3)	 # zero_extendqisi2
	l.ori   	r4,r3,0	 # move reg to reg
	l.lwz   	r3,-32(r2)	 # SI load
	l.sflts 	r4,r3 # cmpsi_lt
	l.bf	.L13
	l.nop			# nop delay slot
	l.lwz   	r3,-72(r2)	 # SI load
	l.ori   	r4,r3,0	 # move reg to reg
	l.lwz   	r3,-24(r2)	 # SI load
	l.add   	r3,r3,r4 # addsi3
	l.lbz   	r3,0(r3)	 # zero_extendqisi2
	l.ori   	r4,r3,0	 # move reg to reg
	l.lwz   	r3,-32(r2)	 # SI load
	l.sfges 	r4,r3 # cmpsi_ge
	l.bf	.L1220
	l.nop			# nop delay slot
	l.lwz   	r3,-68(r2)	 # SI load
	l.ori   	r4,r3,0	 # move reg to reg
	l.lwz   	r3,-24(r2)	 # SI load
	l.add   	r3,r3,r4 # addsi3
	l.lbz   	r3,0(r3)	 # zero_extendqisi2
	l.ori   	r4,r3,0	 # move reg to reg
	l.lwz   	r3,-32(r2)	 # SI load
	l.sfges 	r4,r3 # cmpsi_ge
	l.bf	.L1221
	l.nop			# nop delay slot
	l.lwz   	r3,-64(r2)	 # SI load
	l.ori   	r4,r3,0	 # move reg to reg
	l.lwz   	r3,-24(r2)	 # SI load
	l.add   	r3,r3,r4 # addsi3
	l.lbz   	r3,0(r3)	 # zero_extendqisi2
	l.ori   	r4,r3,0	 # move reg to reg
	l.lwz   	r3,-32(r2)	 # SI load
	l.sfges 	r4,r3 # cmpsi_ge
	l.bf	.L1222
	l.nop			# nop delay slot
	l.lwz   	r3,-60(r2)	 # SI load
	l.ori   	r4,r3,0	 # move reg to reg
	l.lwz   	r3,-24(r2)	 # SI load
	l.add   	r3,r3,r4 # addsi3
	l.lbz   	r3,0(r3)	 # zero_extendqisi2
	l.ori   	r4,r3,0	 # move reg to reg
	l.lwz   	r3,-32(r2)	 # SI load
	l.sfges 	r4,r3 # cmpsi_ge
	l.bf	.L1223
	l.nop			# nop delay slot
	l.lwz   	r3,-56(r2)	 # SI load
	l.ori   	r4,r3,0	 # move reg to reg
	l.lwz   	r3,-24(r2)	 # SI load
	l.add   	r3,r3,r4 # addsi3
	l.lbz   	r3,0(r3)	 # zero_extendqisi2
	l.ori   	r4,r3,0	 # move reg to reg
	l.lwz   	r3,-32(r2)	 # SI load
	l.sfges 	r4,r3 # cmpsi_ge
	l.bf	.L1224
	l.nop			# nop delay slot
	l.lwz   	r3,-52(r2)	 # SI load
	l.ori   	r4,r3,0	 # move reg to reg
	l.lwz   	r3,-24(r2)	 # SI load
	l.add   	r3,r3,r4 # addsi3
	l.lbz   	r3,0(r3)	 # zero_extendqisi2
	l.ori   	r4,r3,0	 # move reg to reg
	l.lwz   	r3,-32(r2)	 # SI load
	l.sflts 	r4,r3 # cmpsi_lt
	l.bf	.L13
	l.nop			# nop delay slot
	l.j     	.L14 # jump_internal
	l.nop			# nop delay slot
.L539:
	l.lwz   	r3,-72(r2)	 # SI load
	l.ori   	r4,r3,0	 # move reg to reg
	l.lwz   	r3,-24(r2)	 # SI load
	l.add   	r3,r3,r4 # addsi3
	l.lbz   	r3,0(r3)	 # zero_extendqisi2
	l.ori   	r4,r3,0	 # move reg to reg
	l.lwz   	r3,-28(r2)	 # SI load
	l.sfles 	r4,r3 # cmpsi_le
	l.bf	.L1225
	l.nop			# nop delay slot
	l.lwz   	r3,-68(r2)	 # SI load
	l.ori   	r4,r3,0	 # move reg to reg
	l.lwz   	r3,-24(r2)	 # SI load
	l.add   	r3,r3,r4 # addsi3
	l.lbz   	r3,0(r3)	 # zero_extendqisi2
	l.ori   	r4,r3,0	 # move reg to reg
	l.lwz   	r3,-28(r2)	 # SI load
	l.sfles 	r4,r3 # cmpsi_le
	l.bf	.L1226
	l.nop			# nop delay slot
	l.lwz   	r3,-64(r2)	 # SI load
	l.ori   	r4,r3,0	 # move reg to reg
	l.lwz   	r3,-24(r2)	 # SI load
	l.add   	r3,r3,r4 # addsi3
	l.lbz   	r3,0(r3)	 # zero_extendqisi2
	l.ori   	r4,r3,0	 # move reg to reg
	l.lwz   	r3,-28(r2)	 # SI load
	l.sfles 	r4,r3 # cmpsi_le
	l.bf	.L1227
	l.nop			# nop delay slot
	l.lwz   	r3,-60(r2)	 # SI load
	l.ori   	r4,r3,0	 # move reg to reg
	l.lwz   	r3,-24(r2)	 # SI load
	l.add   	r3,r3,r4 # addsi3
	l.lbz   	r3,0(r3)	 # zero_extendqisi2
	l.ori   	r4,r3,0	 # move reg to reg
	l.lwz   	r3,-28(r2)	 # SI load
	l.sfles 	r4,r3 # cmpsi_le
	l.bf	.L1228
	l.nop			# nop delay slot
	l.lwz   	r3,-56(r2)	 # SI load
	l.ori   	r4,r3,0	 # move reg to reg
	l.lwz   	r3,-24(r2)	 # SI load
	l.add   	r3,r3,r4 # addsi3
	l.lbz   	r3,0(r3)	 # zero_extendqisi2
	l.ori   	r4,r3,0	 # move reg to reg
	l.lwz   	r3,-28(r2)	 # SI load
	l.sfles 	r4,r3 # cmpsi_le
	l.bf	.L1229
	l.nop			# nop delay slot
	l.lwz   	r3,-52(r2)	 # SI load
	l.ori   	r4,r3,0	 # move reg to reg
	l.lwz   	r3,-24(r2)	 # SI load
	l.add   	r3,r3,r4 # addsi3
	l.lbz   	r3,0(r3)	 # zero_extendqisi2
	l.ori   	r4,r3,0	 # move reg to reg
	l.lwz   	r3,-28(r2)	 # SI load
	l.sfles 	r4,r3 # cmpsi_le
	l.bf	.L1230
	l.nop			# nop delay slot
	l.lwz   	r3,-48(r2)	 # SI load
	l.ori   	r4,r3,0	 # move reg to reg
	l.lwz   	r3,-24(r2)	 # SI load
	l.add   	r3,r3,r4 # addsi3
	l.lbz   	r3,0(r3)	 # zero_extendqisi2
	l.ori   	r4,r3,0	 # move reg to reg
	l.lwz   	r3,-28(r2)	 # SI load
	l.sfles 	r4,r3 # cmpsi_le
	l.bf	.L1231
	l.nop			# nop delay slot
	l.lwz   	r3,-44(r2)	 # SI load
	l.ori   	r4,r3,0	 # move reg to reg
	l.lwz   	r3,-24(r2)	 # SI load
	l.add   	r3,r3,r4 # addsi3
	l.lbz   	r3,0(r3)	 # zero_extendqisi2
	l.ori   	r4,r3,0	 # move reg to reg
	l.lwz   	r3,-28(r2)	 # SI load
	l.sfgts 	r4,r3 # cmpsi_gt
	l.bf	.L13
	l.nop			# nop delay slot
	l.j     	.L14 # jump_internal
	l.nop			# nop delay slot
.L530:
	l.lwz   	r3,-76(r2)	 # SI load
	l.ori   	r4,r3,0	 # move reg to reg
	l.lwz   	r3,-24(r2)	 # SI load
	l.add   	r3,r3,r4 # addsi3
	l.lbz   	r3,0(r3)	 # zero_extendqisi2
	l.ori   	r4,r3,0	 # move reg to reg
	l.lwz   	r3,-32(r2)	 # SI load
	l.sfges 	r4,r3 # cmpsi_ge
	l.bf	.L561
	l.nop			# nop delay slot
	l.lwz   	r3,-72(r2)	 # SI load
	l.ori   	r4,r3,0	 # move reg to reg
	l.lwz   	r3,-24(r2)	 # SI load
	l.add   	r3,r3,r4 # addsi3
	l.lbz   	r3,0(r3)	 # zero_extendqisi2
	l.ori   	r4,r3,0	 # move reg to reg
	l.lwz   	r3,-28(r2)	 # SI load
	l.sfles 	r4,r3 # cmpsi_le
	l.bf	.L562
	l.nop			# nop delay slot
	l.lwz   	r3,-36(r2)	 # SI load
	l.ori   	r4,r3,0	 # move reg to reg
	l.lwz   	r3,-24(r2)	 # SI load
	l.add   	r3,r3,r4 # addsi3
	l.lbz   	r3,0(r3)	 # zero_extendqisi2
	l.ori   	r4,r3,0	 # move reg to reg
	l.lwz   	r3,-32(r2)	 # SI load
	l.sfges 	r4,r3 # cmpsi_ge
	l.bf	.L563
	l.nop			# nop delay slot
	l.lwz   	r3,-44(r2)	 # SI load
	l.ori   	r4,r3,0	 # move reg to reg
	l.lwz   	r3,-24(r2)	 # SI load
	l.add   	r3,r3,r4 # addsi3
	l.lbz   	r3,0(r3)	 # zero_extendqisi2
	l.ori   	r4,r3,0	 # move reg to reg
	l.lwz   	r3,-28(r2)	 # SI load
	l.sfles 	r4,r3 # cmpsi_le
	l.bf	.L564
	l.nop			# nop delay slot
	l.lwz   	r3,-68(r2)	 # SI load
	l.ori   	r4,r3,0	 # move reg to reg
	l.lwz   	r3,-24(r2)	 # SI load
	l.add   	r3,r3,r4 # addsi3
	l.lbz   	r3,0(r3)	 # zero_extendqisi2
	l.ori   	r4,r3,0	 # move reg to reg
	l.lwz   	r3,-28(r2)	 # SI load
	l.sfles 	r4,r3 # cmpsi_le
	l.bf	.L1232
	l.nop			# nop delay slot
	l.lwz   	r3,-64(r2)	 # SI load
	l.ori   	r4,r3,0	 # move reg to reg
	l.lwz   	r3,-24(r2)	 # SI load
	l.add   	r3,r3,r4 # addsi3
	l.lbz   	r3,0(r3)	 # zero_extendqisi2
	l.ori   	r4,r3,0	 # move reg to reg
	l.lwz   	r3,-28(r2)	 # SI load
	l.sfles 	r4,r3 # cmpsi_le
	l.bf	.L1233
	l.nop			# nop delay slot
	l.lwz   	r3,-60(r2)	 # SI load
	l.ori   	r4,r3,0	 # move reg to reg
	l.lwz   	r3,-24(r2)	 # SI load
	l.add   	r3,r3,r4 # addsi3
	l.lbz   	r3,0(r3)	 # zero_extendqisi2
	l.ori   	r4,r3,0	 # move reg to reg
	l.lwz   	r3,-28(r2)	 # SI load
	l.sfles 	r4,r3 # cmpsi_le
	l.bf	.L1234
	l.nop			# nop delay slot
	l.lwz   	r3,-56(r2)	 # SI load
	l.ori   	r4,r3,0	 # move reg to reg
	l.lwz   	r3,-24(r2)	 # SI load
	l.add   	r3,r3,r4 # addsi3
	l.lbz   	r3,0(r3)	 # zero_extendqisi2
	l.ori   	r4,r3,0	 # move reg to reg
	l.lwz   	r3,-28(r2)	 # SI load
	l.sfles 	r4,r3 # cmpsi_le
	l.bf	.L1235
	l.nop			# nop delay slot
	l.lwz   	r3,-52(r2)	 # SI load
	l.ori   	r4,r3,0	 # move reg to reg
	l.lwz   	r3,-24(r2)	 # SI load
	l.add   	r3,r3,r4 # addsi3
	l.lbz   	r3,0(r3)	 # zero_extendqisi2
	l.ori   	r4,r3,0	 # move reg to reg
	l.lwz   	r3,-28(r2)	 # SI load
	l.sfles 	r4,r3 # cmpsi_le
	l.bf	.L1236
	l.nop			# nop delay slot
	l.lwz   	r3,-48(r2)	 # SI load
	l.ori   	r4,r3,0	 # move reg to reg
	l.lwz   	r3,-24(r2)	 # SI load
	l.add   	r3,r3,r4 # addsi3
	l.lbz   	r3,0(r3)	 # zero_extendqisi2
	l.ori   	r4,r3,0	 # move reg to reg
	l.lwz   	r3,-28(r2)	 # SI load
	l.sfles 	r4,r3 # cmpsi_le
	l.bf	.L1237
	l.nop			# nop delay slot
	l.lwz   	r3,-40(r2)	 # SI load
	l.ori   	r4,r3,0	 # move reg to reg
	l.lwz   	r3,-24(r2)	 # SI load
	l.add   	r3,r3,r4 # addsi3
	l.lbz   	r3,0(r3)	 # zero_extendqisi2
	l.ori   	r4,r3,0	 # move reg to reg
	l.lwz   	r3,-28(r2)	 # SI load
	l.sfgts 	r4,r3 # cmpsi_gt
	l.bf	.L13
	l.nop			# nop delay slot
	l.j     	.L14 # jump_internal
	l.nop			# nop delay slot
.L564:
	l.lwz   	r3,-44(r2)	 # SI load
	l.ori   	r4,r3,0	 # move reg to reg
	l.lwz   	r3,-24(r2)	 # SI load
	l.add   	r3,r3,r4 # addsi3
	l.lbz   	r3,0(r3)	 # zero_extendqisi2
	l.ori   	r4,r3,0	 # move reg to reg
	l.lwz   	r3,-32(r2)	 # SI load
	l.sfges 	r4,r3 # cmpsi_ge
	l.bf	.L1238
	l.nop			# nop delay slot
	l.lwz   	r3,-40(r2)	 # SI load
	l.ori   	r4,r3,0	 # move reg to reg
	l.lwz   	r3,-24(r2)	 # SI load
	l.add   	r3,r3,r4 # addsi3
	l.lbz   	r3,0(r3)	 # zero_extendqisi2
	l.ori   	r4,r3,0	 # move reg to reg
	l.lwz   	r3,-32(r2)	 # SI load
	l.sflts 	r4,r3 # cmpsi_lt
	l.bf	.L13
	l.nop			# nop delay slot
	l.j     	.L14 # jump_internal
	l.nop			# nop delay slot
.L563:
	l.lwz   	r3,-68(r2)	 # SI load
	l.ori   	r4,r3,0	 # move reg to reg
	l.lwz   	r3,-24(r2)	 # SI load
	l.add   	r3,r3,r4 # addsi3
	l.lbz   	r3,0(r3)	 # zero_extendqisi2
	l.ori   	r4,r3,0	 # move reg to reg
	l.lwz   	r3,-28(r2)	 # SI load
	l.sfles 	r4,r3 # cmpsi_le
	l.bf	.L1239
	l.nop			# nop delay slot
	l.lwz   	r3,-64(r2)	 # SI load
	l.ori   	r4,r3,0	 # move reg to reg
	l.lwz   	r3,-24(r2)	 # SI load
	l.add   	r3,r3,r4 # addsi3
	l.lbz   	r3,0(r3)	 # zero_extendqisi2
	l.ori   	r4,r3,0	 # move reg to reg
	l.lwz   	r3,-28(r2)	 # SI load
	l.sfles 	r4,r3 # cmpsi_le
	l.bf	.L1240
	l.nop			# nop delay slot
	l.lwz   	r3,-60(r2)	 # SI load
	l.ori   	r4,r3,0	 # move reg to reg
	l.lwz   	r3,-24(r2)	 # SI load
	l.add   	r3,r3,r4 # addsi3
	l.lbz   	r3,0(r3)	 # zero_extendqisi2
	l.ori   	r4,r3,0	 # move reg to reg
	l.lwz   	r3,-28(r2)	 # SI load
	l.sfles 	r4,r3 # cmpsi_le
	l.bf	.L1241
	l.nop			# nop delay slot
	l.lwz   	r3,-56(r2)	 # SI load
	l.ori   	r4,r3,0	 # move reg to reg
	l.lwz   	r3,-24(r2)	 # SI load
	l.add   	r3,r3,r4 # addsi3
	l.lbz   	r3,0(r3)	 # zero_extendqisi2
	l.ori   	r4,r3,0	 # move reg to reg
	l.lwz   	r3,-28(r2)	 # SI load
	l.sfles 	r4,r3 # cmpsi_le
	l.bf	.L1242
	l.nop			# nop delay slot
	l.lwz   	r3,-52(r2)	 # SI load
	l.ori   	r4,r3,0	 # move reg to reg
	l.lwz   	r3,-24(r2)	 # SI load
	l.add   	r3,r3,r4 # addsi3
	l.lbz   	r3,0(r3)	 # zero_extendqisi2
	l.ori   	r4,r3,0	 # move reg to reg
	l.lwz   	r3,-28(r2)	 # SI load
	l.sfles 	r4,r3 # cmpsi_le
	l.bf	.L1243
	l.nop			# nop delay slot
	l.lwz   	r3,-48(r2)	 # SI load
	l.ori   	r4,r3,0	 # move reg to reg
	l.lwz   	r3,-24(r2)	 # SI load
	l.add   	r3,r3,r4 # addsi3
	l.lbz   	r3,0(r3)	 # zero_extendqisi2
	l.ori   	r4,r3,0	 # move reg to reg
	l.lwz   	r3,-28(r2)	 # SI load
	l.sfles 	r4,r3 # cmpsi_le
	l.bf	.L1244
	l.nop			# nop delay slot
	l.lwz   	r3,-44(r2)	 # SI load
	l.ori   	r4,r3,0	 # move reg to reg
	l.lwz   	r3,-24(r2)	 # SI load
	l.add   	r3,r3,r4 # addsi3
	l.lbz   	r3,0(r3)	 # zero_extendqisi2
	l.ori   	r4,r3,0	 # move reg to reg
	l.lwz   	r3,-28(r2)	 # SI load
	l.sfles 	r4,r3 # cmpsi_le
	l.bf	.L1245
	l.nop			# nop delay slot
	l.lwz   	r3,-40(r2)	 # SI load
	l.ori   	r4,r3,0	 # move reg to reg
	l.lwz   	r3,-24(r2)	 # SI load
	l.add   	r3,r3,r4 # addsi3
	l.lbz   	r3,0(r3)	 # zero_extendqisi2
	l.ori   	r4,r3,0	 # move reg to reg
	l.lwz   	r3,-28(r2)	 # SI load
	l.sfgts 	r4,r3 # cmpsi_gt
	l.bf	.L13
	l.nop			# nop delay slot
	l.j     	.L14 # jump_internal
	l.nop			# nop delay slot
.L562:
	l.lwz   	r3,-72(r2)	 # SI load
	l.ori   	r4,r3,0	 # move reg to reg
	l.lwz   	r3,-24(r2)	 # SI load
	l.add   	r3,r3,r4 # addsi3
	l.lbz   	r3,0(r3)	 # zero_extendqisi2
	l.ori   	r4,r3,0	 # move reg to reg
	l.lwz   	r3,-32(r2)	 # SI load
	l.sfges 	r4,r3 # cmpsi_ge
	l.bf	.L579
	l.nop			# nop delay slot
	l.lwz   	r3,-68(r2)	 # SI load
	l.ori   	r4,r3,0	 # move reg to reg
	l.lwz   	r3,-24(r2)	 # SI load
	l.add   	r3,r3,r4 # addsi3
	l.lbz   	r3,0(r3)	 # zero_extendqisi2
	l.ori   	r4,r3,0	 # move reg to reg
	l.lwz   	r3,-28(r2)	 # SI load
	l.sfles 	r4,r3 # cmpsi_le
	l.bf	.L580
	l.nop			# nop delay slot
	l.lwz   	r3,-40(r2)	 # SI load
	l.ori   	r4,r3,0	 # move reg to reg
	l.lwz   	r3,-24(r2)	 # SI load
	l.add   	r3,r3,r4 # addsi3
	l.lbz   	r3,0(r3)	 # zero_extendqisi2
	l.ori   	r4,r3,0	 # move reg to reg
	l.lwz   	r3,-28(r2)	 # SI load
	l.sfles 	r4,r3 # cmpsi_le
	l.bf	.L581
	l.nop			# nop delay slot
	l.lwz   	r3,-64(r2)	 # SI load
	l.ori   	r4,r3,0	 # move reg to reg
	l.lwz   	r3,-24(r2)	 # SI load
	l.add   	r3,r3,r4 # addsi3
	l.lbz   	r3,0(r3)	 # zero_extendqisi2
	l.ori   	r4,r3,0	 # move reg to reg
	l.lwz   	r3,-28(r2)	 # SI load
	l.sfles 	r4,r3 # cmpsi_le
	l.bf	.L1246
	l.nop			# nop delay slot
	l.lwz   	r3,-60(r2)	 # SI load
	l.ori   	r4,r3,0	 # move reg to reg
	l.lwz   	r3,-24(r2)	 # SI load
	l.add   	r3,r3,r4 # addsi3
	l.lbz   	r3,0(r3)	 # zero_extendqisi2
	l.ori   	r4,r3,0	 # move reg to reg
	l.lwz   	r3,-28(r2)	 # SI load
	l.sfles 	r4,r3 # cmpsi_le
	l.bf	.L1247
	l.nop			# nop delay slot
	l.lwz   	r3,-56(r2)	 # SI load
	l.ori   	r4,r3,0	 # move reg to reg
	l.lwz   	r3,-24(r2)	 # SI load
	l.add   	r3,r3,r4 # addsi3
	l.lbz   	r3,0(r3)	 # zero_extendqisi2
	l.ori   	r4,r3,0	 # move reg to reg
	l.lwz   	r3,-28(r2)	 # SI load
	l.sfles 	r4,r3 # cmpsi_le
	l.bf	.L1248
	l.nop			# nop delay slot
	l.lwz   	r3,-52(r2)	 # SI load
	l.ori   	r4,r3,0	 # move reg to reg
	l.lwz   	r3,-24(r2)	 # SI load
	l.add   	r3,r3,r4 # addsi3
	l.lbz   	r3,0(r3)	 # zero_extendqisi2
	l.ori   	r4,r3,0	 # move reg to reg
	l.lwz   	r3,-28(r2)	 # SI load
	l.sfles 	r4,r3 # cmpsi_le
	l.bf	.L1249
	l.nop			# nop delay slot
	l.lwz   	r3,-48(r2)	 # SI load
	l.ori   	r4,r3,0	 # move reg to reg
	l.lwz   	r3,-24(r2)	 # SI load
	l.add   	r3,r3,r4 # addsi3
	l.lbz   	r3,0(r3)	 # zero_extendqisi2
	l.ori   	r4,r3,0	 # move reg to reg
	l.lwz   	r3,-28(r2)	 # SI load
	l.sfles 	r4,r3 # cmpsi_le
	l.bf	.L1250
	l.nop			# nop delay slot
	l.lwz   	r3,-44(r2)	 # SI load
	l.ori   	r4,r3,0	 # move reg to reg
	l.lwz   	r3,-24(r2)	 # SI load
	l.add   	r3,r3,r4 # addsi3
	l.lbz   	r3,0(r3)	 # zero_extendqisi2
	l.ori   	r4,r3,0	 # move reg to reg
	l.lwz   	r3,-28(r2)	 # SI load
	l.sfles 	r4,r3 # cmpsi_le
	l.bf	.L1251
	l.nop			# nop delay slot
	l.lwz   	r3,-36(r2)	 # SI load
	l.ori   	r4,r3,0	 # move reg to reg
	l.lwz   	r3,-24(r2)	 # SI load
	l.add   	r3,r3,r4 # addsi3
	l.lbz   	r3,0(r3)	 # zero_extendqisi2
	l.ori   	r4,r3,0	 # move reg to reg
	l.lwz   	r3,-28(r2)	 # SI load
	l.sfgts 	r4,r3 # cmpsi_gt
	l.bf	.L13
	l.nop			# nop delay slot
	l.j     	.L14 # jump_internal
	l.nop			# nop delay slot
.L581:
	l.lwz   	r3,-40(r2)	 # SI load
	l.ori   	r4,r3,0	 # move reg to reg
	l.lwz   	r3,-24(r2)	 # SI load
	l.add   	r3,r3,r4 # addsi3
	l.lbz   	r3,0(r3)	 # zero_extendqisi2
	l.ori   	r4,r3,0	 # move reg to reg
	l.lwz   	r3,-32(r2)	 # SI load
	l.sfges 	r4,r3 # cmpsi_ge
	l.bf	.L1252
	l.nop			# nop delay slot
	l.lwz   	r3,-36(r2)	 # SI load
	l.ori   	r4,r3,0	 # move reg to reg
	l.lwz   	r3,-24(r2)	 # SI load
	l.add   	r3,r3,r4 # addsi3
	l.lbz   	r3,0(r3)	 # zero_extendqisi2
	l.ori   	r4,r3,0	 # move reg to reg
	l.lwz   	r3,-32(r2)	 # SI load
	l.sflts 	r4,r3 # cmpsi_lt
	l.bf	.L13
	l.nop			# nop delay slot
	l.j     	.L14 # jump_internal
	l.nop			# nop delay slot
.L580:
	l.lwz   	r3,-68(r2)	 # SI load
	l.ori   	r4,r3,0	 # move reg to reg
	l.lwz   	r3,-24(r2)	 # SI load
	l.add   	r3,r3,r4 # addsi3
	l.lbz   	r3,0(r3)	 # zero_extendqisi2
	l.ori   	r4,r3,0	 # move reg to reg
	l.lwz   	r3,-32(r2)	 # SI load
	l.sfges 	r4,r3 # cmpsi_ge
	l.bf	.L589
	l.nop			# nop delay slot
	l.lwz   	r3,-64(r2)	 # SI load
	l.ori   	r4,r3,0	 # move reg to reg
	l.lwz   	r3,-24(r2)	 # SI load
	l.add   	r3,r3,r4 # addsi3
	l.lbz   	r3,0(r3)	 # zero_extendqisi2
	l.ori   	r4,r3,0	 # move reg to reg
	l.lwz   	r3,-32(r2)	 # SI load
	l.sflts 	r4,r3 # cmpsi_lt
	l.bf	.L13
	l.nop			# nop delay slot
	l.lwz   	r3,-36(r2)	 # SI load
	l.ori   	r4,r3,0	 # move reg to reg
	l.lwz   	r3,-24(r2)	 # SI load
	l.add   	r3,r3,r4 # addsi3
	l.lbz   	r3,0(r3)	 # zero_extendqisi2
	l.ori   	r4,r3,0	 # move reg to reg
	l.lwz   	r3,-32(r2)	 # SI load
	l.sflts 	r4,r3 # cmpsi_lt
	l.bf	.L13
	l.nop			# nop delay slot
	l.j     	.L14 # jump_internal
	l.nop			# nop delay slot
.L589:
	l.lwz   	r3,-40(r2)	 # SI load
	l.ori   	r4,r3,0	 # move reg to reg
	l.lwz   	r3,-24(r2)	 # SI load
	l.add   	r3,r3,r4 # addsi3
	l.lbz   	r3,0(r3)	 # zero_extendqisi2
	l.ori   	r4,r3,0	 # move reg to reg
	l.lwz   	r3,-32(r2)	 # SI load
	l.sfges 	r4,r3 # cmpsi_ge
	l.bf	.L1253
	l.nop			# nop delay slot
	l.lwz   	r3,-36(r2)	 # SI load
	l.ori   	r4,r3,0	 # move reg to reg
	l.lwz   	r3,-24(r2)	 # SI load
	l.add   	r3,r3,r4 # addsi3
	l.lbz   	r3,0(r3)	 # zero_extendqisi2
	l.ori   	r4,r3,0	 # move reg to reg
	l.lwz   	r3,-32(r2)	 # SI load
	l.sflts 	r4,r3 # cmpsi_lt
	l.bf	.L13
	l.nop			# nop delay slot
	l.j     	.L14 # jump_internal
	l.nop			# nop delay slot
.L579:
	l.lwz   	r3,-44(r2)	 # SI load
	l.ori   	r4,r3,0	 # move reg to reg
	l.lwz   	r3,-24(r2)	 # SI load
	l.add   	r3,r3,r4 # addsi3
	l.lbz   	r3,0(r3)	 # zero_extendqisi2
	l.ori   	r4,r3,0	 # move reg to reg
	l.lwz   	r3,-28(r2)	 # SI load
	l.sfles 	r4,r3 # cmpsi_le
	l.bf	.L591
	l.nop			# nop delay slot
	l.lwz   	r3,-68(r2)	 # SI load
	l.ori   	r4,r3,0	 # move reg to reg
	l.lwz   	r3,-24(r2)	 # SI load
	l.add   	r3,r3,r4 # addsi3
	l.lbz   	r3,0(r3)	 # zero_extendqisi2
	l.ori   	r4,r3,0	 # move reg to reg
	l.lwz   	r3,-28(r2)	 # SI load
	l.sfles 	r4,r3 # cmpsi_le
	l.bf	.L1254
	l.nop			# nop delay slot
	l.lwz   	r3,-64(r2)	 # SI load
	l.ori   	r4,r3,0	 # move reg to reg
	l.lwz   	r3,-24(r2)	 # SI load
	l.add   	r3,r3,r4 # addsi3
	l.lbz   	r3,0(r3)	 # zero_extendqisi2
	l.ori   	r4,r3,0	 # move reg to reg
	l.lwz   	r3,-28(r2)	 # SI load
	l.sfles 	r4,r3 # cmpsi_le
	l.bf	.L1255
	l.nop			# nop delay slot
	l.lwz   	r3,-60(r2)	 # SI load
	l.ori   	r4,r3,0	 # move reg to reg
	l.lwz   	r3,-24(r2)	 # SI load
	l.add   	r3,r3,r4 # addsi3
	l.lbz   	r3,0(r3)	 # zero_extendqisi2
	l.ori   	r4,r3,0	 # move reg to reg
	l.lwz   	r3,-28(r2)	 # SI load
	l.sfles 	r4,r3 # cmpsi_le
	l.bf	.L1256
	l.nop			# nop delay slot
	l.lwz   	r3,-56(r2)	 # SI load
	l.ori   	r4,r3,0	 # move reg to reg
	l.lwz   	r3,-24(r2)	 # SI load
	l.add   	r3,r3,r4 # addsi3
	l.lbz   	r3,0(r3)	 # zero_extendqisi2
	l.ori   	r4,r3,0	 # move reg to reg
	l.lwz   	r3,-28(r2)	 # SI load
	l.sfles 	r4,r3 # cmpsi_le
	l.bf	.L1257
	l.nop			# nop delay slot
	l.lwz   	r3,-52(r2)	 # SI load
	l.ori   	r4,r3,0	 # move reg to reg
	l.lwz   	r3,-24(r2)	 # SI load
	l.add   	r3,r3,r4 # addsi3
	l.lbz   	r3,0(r3)	 # zero_extendqisi2
	l.ori   	r4,r3,0	 # move reg to reg
	l.lwz   	r3,-28(r2)	 # SI load
	l.sfles 	r4,r3 # cmpsi_le
	l.bf	.L1258
	l.nop			# nop delay slot
	l.lwz   	r3,-48(r2)	 # SI load
	l.ori   	r4,r3,0	 # move reg to reg
	l.lwz   	r3,-24(r2)	 # SI load
	l.add   	r3,r3,r4 # addsi3
	l.lbz   	r3,0(r3)	 # zero_extendqisi2
	l.ori   	r4,r3,0	 # move reg to reg
	l.lwz   	r3,-28(r2)	 # SI load
	l.sfles 	r4,r3 # cmpsi_le
	l.bf	.L1259
	l.nop			# nop delay slot
	l.lwz   	r3,-40(r2)	 # SI load
	l.ori   	r4,r3,0	 # move reg to reg
	l.lwz   	r3,-24(r2)	 # SI load
	l.add   	r3,r3,r4 # addsi3
	l.lbz   	r3,0(r3)	 # zero_extendqisi2
	l.ori   	r4,r3,0	 # move reg to reg
	l.lwz   	r3,-28(r2)	 # SI load
	l.sfles 	r4,r3 # cmpsi_le
	l.bf	.L1260
	l.nop			# nop delay slot
	l.lwz   	r3,-36(r2)	 # SI load
	l.ori   	r4,r3,0	 # move reg to reg
	l.lwz   	r3,-24(r2)	 # SI load
	l.add   	r3,r3,r4 # addsi3
	l.lbz   	r3,0(r3)	 # zero_extendqisi2
	l.ori   	r4,r3,0	 # move reg to reg
	l.lwz   	r3,-28(r2)	 # SI load
	l.sfgts 	r4,r3 # cmpsi_gt
	l.bf	.L13
	l.nop			# nop delay slot
	l.j     	.L14 # jump_internal
	l.nop			# nop delay slot
.L591:
	l.lwz   	r3,-44(r2)	 # SI load
	l.ori   	r4,r3,0	 # move reg to reg
	l.lwz   	r3,-24(r2)	 # SI load
	l.add   	r3,r3,r4 # addsi3
	l.lbz   	r3,0(r3)	 # zero_extendqisi2
	l.ori   	r4,r3,0	 # move reg to reg
	l.lwz   	r3,-32(r2)	 # SI load
	l.sfges 	r4,r3 # cmpsi_ge
	l.bf	.L1261
	l.nop			# nop delay slot
	l.lwz   	r3,-40(r2)	 # SI load
	l.ori   	r4,r3,0	 # move reg to reg
	l.lwz   	r3,-24(r2)	 # SI load
	l.add   	r3,r3,r4 # addsi3
	l.lbz   	r3,0(r3)	 # zero_extendqisi2
	l.ori   	r4,r3,0	 # move reg to reg
	l.lwz   	r3,-32(r2)	 # SI load
	l.sfges 	r4,r3 # cmpsi_ge
	l.bf	.L1262
	l.nop			# nop delay slot
	l.lwz   	r3,-36(r2)	 # SI load
	l.ori   	r4,r3,0	 # move reg to reg
	l.lwz   	r3,-24(r2)	 # SI load
	l.add   	r3,r3,r4 # addsi3
	l.lbz   	r3,0(r3)	 # zero_extendqisi2
	l.ori   	r4,r3,0	 # move reg to reg
	l.lwz   	r3,-32(r2)	 # SI load
	l.sflts 	r4,r3 # cmpsi_lt
	l.bf	.L13
	l.nop			# nop delay slot
	l.j     	.L14 # jump_internal
	l.nop			# nop delay slot
.L561:
	l.lwz   	r3,-48(r2)	 # SI load
	l.ori   	r4,r3,0	 # move reg to reg
	l.lwz   	r3,-24(r2)	 # SI load
	l.add   	r3,r3,r4 # addsi3
	l.lbz   	r3,0(r3)	 # zero_extendqisi2
	l.ori   	r4,r3,0	 # move reg to reg
	l.lwz   	r3,-28(r2)	 # SI load
	l.sfles 	r4,r3 # cmpsi_le
	l.bf	.L601
	l.nop			# nop delay slot
	l.lwz   	r3,-68(r2)	 # SI load
	l.ori   	r4,r3,0	 # move reg to reg
	l.lwz   	r3,-24(r2)	 # SI load
	l.add   	r3,r3,r4 # addsi3
	l.lbz   	r3,0(r3)	 # zero_extendqisi2
	l.ori   	r4,r3,0	 # move reg to reg
	l.lwz   	r3,-28(r2)	 # SI load
	l.sfles 	r4,r3 # cmpsi_le
	l.bf	.L1263
	l.nop			# nop delay slot
	l.lwz   	r3,-64(r2)	 # SI load
	l.ori   	r4,r3,0	 # move reg to reg
	l.lwz   	r3,-24(r2)	 # SI load
	l.add   	r3,r3,r4 # addsi3
	l.lbz   	r3,0(r3)	 # zero_extendqisi2
	l.ori   	r4,r3,0	 # move reg to reg
	l.lwz   	r3,-28(r2)	 # SI load
	l.sfles 	r4,r3 # cmpsi_le
	l.bf	.L1264
	l.nop			# nop delay slot
	l.lwz   	r3,-60(r2)	 # SI load
	l.ori   	r4,r3,0	 # move reg to reg
	l.lwz   	r3,-24(r2)	 # SI load
	l.add   	r3,r3,r4 # addsi3
	l.lbz   	r3,0(r3)	 # zero_extendqisi2
	l.ori   	r4,r3,0	 # move reg to reg
	l.lwz   	r3,-28(r2)	 # SI load
	l.sfles 	r4,r3 # cmpsi_le
	l.bf	.L1265
	l.nop			# nop delay slot
	l.lwz   	r3,-56(r2)	 # SI load
	l.ori   	r4,r3,0	 # move reg to reg
	l.lwz   	r3,-24(r2)	 # SI load
	l.add   	r3,r3,r4 # addsi3
	l.lbz   	r3,0(r3)	 # zero_extendqisi2
	l.ori   	r4,r3,0	 # move reg to reg
	l.lwz   	r3,-28(r2)	 # SI load
	l.sfles 	r4,r3 # cmpsi_le
	l.bf	.L1266
	l.nop			# nop delay slot
	l.lwz   	r3,-52(r2)	 # SI load
	l.ori   	r4,r3,0	 # move reg to reg
	l.lwz   	r3,-24(r2)	 # SI load
	l.add   	r3,r3,r4 # addsi3
	l.lbz   	r3,0(r3)	 # zero_extendqisi2
	l.ori   	r4,r3,0	 # move reg to reg
	l.lwz   	r3,-28(r2)	 # SI load
	l.sfles 	r4,r3 # cmpsi_le
	l.bf	.L1267
	l.nop			# nop delay slot
	l.lwz   	r3,-44(r2)	 # SI load
	l.ori   	r4,r3,0	 # move reg to reg
	l.lwz   	r3,-24(r2)	 # SI load
	l.add   	r3,r3,r4 # addsi3
	l.lbz   	r3,0(r3)	 # zero_extendqisi2
	l.ori   	r4,r3,0	 # move reg to reg
	l.lwz   	r3,-28(r2)	 # SI load
	l.sfles 	r4,r3 # cmpsi_le
	l.bf	.L1268
	l.nop			# nop delay slot
	l.lwz   	r3,-40(r2)	 # SI load
	l.ori   	r4,r3,0	 # move reg to reg
	l.lwz   	r3,-24(r2)	 # SI load
	l.add   	r3,r3,r4 # addsi3
	l.lbz   	r3,0(r3)	 # zero_extendqisi2
	l.ori   	r4,r3,0	 # move reg to reg
	l.lwz   	r3,-28(r2)	 # SI load
	l.sfles 	r4,r3 # cmpsi_le
	l.bf	.L1269
	l.nop			# nop delay slot
	l.lwz   	r3,-72(r2)	 # SI load
	l.ori   	r4,r3,0	 # move reg to reg
	l.lwz   	r3,-24(r2)	 # SI load
	l.add   	r3,r3,r4 # addsi3
	l.lbz   	r3,0(r3)	 # zero_extendqisi2
	l.ori   	r4,r3,0	 # move reg to reg
	l.lwz   	r3,-28(r2)	 # SI load
	l.sfgts 	r4,r3 # cmpsi_gt
	l.bf	.L13
	l.nop			# nop delay slot
	l.lwz   	r3,-36(r2)	 # SI load
	l.ori   	r4,r3,0	 # move reg to reg
	l.lwz   	r3,-24(r2)	 # SI load
	l.add   	r3,r3,r4 # addsi3
	l.lbz   	r3,0(r3)	 # zero_extendqisi2
	l.ori   	r4,r3,0	 # move reg to reg
	l.lwz   	r3,-28(r2)	 # SI load
	l.sfgts 	r4,r3 # cmpsi_gt
	l.bf	.L13
	l.nop			# nop delay slot
	l.j     	.L14 # jump_internal
	l.nop			# nop delay slot
.L601:
	l.lwz   	r3,-48(r2)	 # SI load
	l.ori   	r4,r3,0	 # move reg to reg
	l.lwz   	r3,-24(r2)	 # SI load
	l.add   	r3,r3,r4 # addsi3
	l.lbz   	r3,0(r3)	 # zero_extendqisi2
	l.ori   	r4,r3,0	 # move reg to reg
	l.lwz   	r3,-32(r2)	 # SI load
	l.sfges 	r4,r3 # cmpsi_ge
	l.bf	.L1270
	l.nop			# nop delay slot
	l.lwz   	r3,-44(r2)	 # SI load
	l.ori   	r4,r3,0	 # move reg to reg
	l.lwz   	r3,-24(r2)	 # SI load
	l.add   	r3,r3,r4 # addsi3
	l.lbz   	r3,0(r3)	 # zero_extendqisi2
	l.ori   	r4,r3,0	 # move reg to reg
	l.lwz   	r3,-32(r2)	 # SI load
	l.sfges 	r4,r3 # cmpsi_ge
	l.bf	.L1271
	l.nop			# nop delay slot
	l.lwz   	r3,-40(r2)	 # SI load
	l.ori   	r4,r3,0	 # move reg to reg
	l.lwz   	r3,-24(r2)	 # SI load
	l.add   	r3,r3,r4 # addsi3
	l.lbz   	r3,0(r3)	 # zero_extendqisi2
	l.ori   	r4,r3,0	 # move reg to reg
	l.lwz   	r3,-32(r2)	 # SI load
	l.sfges 	r4,r3 # cmpsi_ge
	l.bf	.L1272
	l.nop			# nop delay slot
	l.lwz   	r3,-36(r2)	 # SI load
	l.ori   	r4,r3,0	 # move reg to reg
	l.lwz   	r3,-24(r2)	 # SI load
	l.add   	r3,r3,r4 # addsi3
	l.lbz   	r3,0(r3)	 # zero_extendqisi2
	l.ori   	r4,r3,0	 # move reg to reg
	l.lwz   	r3,-32(r2)	 # SI load
	l.sflts 	r4,r3 # cmpsi_lt
	l.bf	.L13
	l.nop			# nop delay slot
	l.lwz   	r3,-72(r2)	 # SI load
	l.ori   	r4,r3,0	 # move reg to reg
	l.lwz   	r3,-24(r2)	 # SI load
	l.add   	r3,r3,r4 # addsi3
	l.lbz   	r3,0(r3)	 # zero_extendqisi2
	l.ori   	r4,r3,0	 # move reg to reg
	l.lwz   	r3,-32(r2)	 # SI load
	l.sfges 	r4,r3 # cmpsi_ge
	l.bf	.L1273
	l.nop			# nop delay slot
	l.lwz   	r3,-68(r2)	 # SI load
	l.ori   	r4,r3,0	 # move reg to reg
	l.lwz   	r3,-24(r2)	 # SI load
	l.add   	r3,r3,r4 # addsi3
	l.lbz   	r3,0(r3)	 # zero_extendqisi2
	l.ori   	r4,r3,0	 # move reg to reg
	l.lwz   	r3,-32(r2)	 # SI load
	l.sfges 	r4,r3 # cmpsi_ge
	l.bf	.L1274
	l.nop			# nop delay slot
	l.lwz   	r3,-64(r2)	 # SI load
	l.ori   	r4,r3,0	 # move reg to reg
	l.lwz   	r3,-24(r2)	 # SI load
	l.add   	r3,r3,r4 # addsi3
	l.lbz   	r3,0(r3)	 # zero_extendqisi2
	l.ori   	r4,r3,0	 # move reg to reg
	l.lwz   	r3,-32(r2)	 # SI load
	l.sfges 	r4,r3 # cmpsi_ge
	l.bf	.L1275
	l.nop			# nop delay slot
	l.lwz   	r3,-60(r2)	 # SI load
	l.ori   	r4,r3,0	 # move reg to reg
	l.lwz   	r3,-24(r2)	 # SI load
	l.add   	r3,r3,r4 # addsi3
	l.lbz   	r3,0(r3)	 # zero_extendqisi2
	l.ori   	r4,r3,0	 # move reg to reg
	l.lwz   	r3,-32(r2)	 # SI load
	l.sfges 	r4,r3 # cmpsi_ge
	l.bf	.L1276
	l.nop			# nop delay slot
	l.lwz   	r3,-56(r2)	 # SI load
	l.ori   	r4,r3,0	 # move reg to reg
	l.lwz   	r3,-24(r2)	 # SI load
	l.add   	r3,r3,r4 # addsi3
	l.lbz   	r3,0(r3)	 # zero_extendqisi2
	l.ori   	r4,r3,0	 # move reg to reg
	l.lwz   	r3,-32(r2)	 # SI load
	l.sfges 	r4,r3 # cmpsi_ge
	l.bf	.L1277
	l.nop			# nop delay slot
	l.lwz   	r3,-52(r2)	 # SI load
	l.ori   	r4,r3,0	 # move reg to reg
	l.lwz   	r3,-24(r2)	 # SI load
	l.add   	r3,r3,r4 # addsi3
	l.lbz   	r3,0(r3)	 # zero_extendqisi2
	l.ori   	r4,r3,0	 # move reg to reg
	l.lwz   	r3,-32(r2)	 # SI load
	l.sflts 	r4,r3 # cmpsi_lt
	l.bf	.L13
	l.nop			# nop delay slot
	l.j     	.L14 # jump_internal
	l.nop			# nop delay slot
.L529:
	l.lwz   	r3,-52(r2)	 # SI load
	l.ori   	r4,r3,0	 # move reg to reg
	l.lwz   	r3,-24(r2)	 # SI load
	l.add   	r3,r3,r4 # addsi3
	l.lbz   	r3,0(r3)	 # zero_extendqisi2
	l.ori   	r4,r3,0	 # move reg to reg
	l.lwz   	r3,-28(r2)	 # SI load
	l.sfles 	r4,r3 # cmpsi_le
	l.bf	.L617
	l.nop			# nop delay slot
	l.lwz   	r3,-68(r2)	 # SI load
	l.ori   	r4,r3,0	 # move reg to reg
	l.lwz   	r3,-24(r2)	 # SI load
	l.add   	r3,r3,r4 # addsi3
	l.lbz   	r3,0(r3)	 # zero_extendqisi2
	l.ori   	r4,r3,0	 # move reg to reg
	l.lwz   	r3,-28(r2)	 # SI load
	l.sfles 	r4,r3 # cmpsi_le
	l.bf	.L1278
	l.nop			# nop delay slot
	l.lwz   	r3,-64(r2)	 # SI load
	l.ori   	r4,r3,0	 # move reg to reg
	l.lwz   	r3,-24(r2)	 # SI load
	l.add   	r3,r3,r4 # addsi3
	l.lbz   	r3,0(r3)	 # zero_extendqisi2
	l.ori   	r4,r3,0	 # move reg to reg
	l.lwz   	r3,-28(r2)	 # SI load
	l.sfles 	r4,r3 # cmpsi_le
	l.bf	.L1279
	l.nop			# nop delay slot
	l.lwz   	r3,-60(r2)	 # SI load
	l.ori   	r4,r3,0	 # move reg to reg
	l.lwz   	r3,-24(r2)	 # SI load
	l.add   	r3,r3,r4 # addsi3
	l.lbz   	r3,0(r3)	 # zero_extendqisi2
	l.ori   	r4,r3,0	 # move reg to reg
	l.lwz   	r3,-28(r2)	 # SI load
	l.sfles 	r4,r3 # cmpsi_le
	l.bf	.L1280
	l.nop			# nop delay slot
	l.lwz   	r3,-56(r2)	 # SI load
	l.ori   	r4,r3,0	 # move reg to reg
	l.lwz   	r3,-24(r2)	 # SI load
	l.add   	r3,r3,r4 # addsi3
	l.lbz   	r3,0(r3)	 # zero_extendqisi2
	l.ori   	r4,r3,0	 # move reg to reg
	l.lwz   	r3,-28(r2)	 # SI load
	l.sfles 	r4,r3 # cmpsi_le
	l.bf	.L1281
	l.nop			# nop delay slot
	l.lwz   	r3,-48(r2)	 # SI load
	l.ori   	r4,r3,0	 # move reg to reg
	l.lwz   	r3,-24(r2)	 # SI load
	l.add   	r3,r3,r4 # addsi3
	l.lbz   	r3,0(r3)	 # zero_extendqisi2
	l.ori   	r4,r3,0	 # move reg to reg
	l.lwz   	r3,-28(r2)	 # SI load
	l.sfles 	r4,r3 # cmpsi_le
	l.bf	.L1282
	l.nop			# nop delay slot
	l.lwz   	r3,-44(r2)	 # SI load
	l.ori   	r4,r3,0	 # move reg to reg
	l.lwz   	r3,-24(r2)	 # SI load
	l.add   	r3,r3,r4 # addsi3
	l.lbz   	r3,0(r3)	 # zero_extendqisi2
	l.ori   	r4,r3,0	 # move reg to reg
	l.lwz   	r3,-28(r2)	 # SI load
	l.sfles 	r4,r3 # cmpsi_le
	l.bf	.L1283
	l.nop			# nop delay slot
	l.lwz   	r3,-72(r2)	 # SI load
	l.ori   	r4,r3,0	 # move reg to reg
	l.lwz   	r3,-24(r2)	 # SI load
	l.add   	r3,r3,r4 # addsi3
	l.lbz   	r3,0(r3)	 # zero_extendqisi2
	l.ori   	r4,r3,0	 # move reg to reg
	l.lwz   	r3,-28(r2)	 # SI load
	l.sfles 	r4,r3 # cmpsi_le
	l.bf	.L624
	l.nop			# nop delay slot
	l.lwz   	r3,-76(r2)	 # SI load
	l.ori   	r4,r3,0	 # move reg to reg
	l.lwz   	r3,-24(r2)	 # SI load
	l.add   	r3,r3,r4 # addsi3
	l.lbz   	r3,0(r3)	 # zero_extendqisi2
	l.ori   	r4,r3,0	 # move reg to reg
	l.lwz   	r3,-28(r2)	 # SI load
	l.sfgts 	r4,r3 # cmpsi_gt
	l.bf	.L13
	l.nop			# nop delay slot
	l.lwz   	r3,-40(r2)	 # SI load
	l.ori   	r4,r3,0	 # move reg to reg
	l.lwz   	r3,-24(r2)	 # SI load
	l.add   	r3,r3,r4 # addsi3
	l.lbz   	r3,0(r3)	 # zero_extendqisi2
	l.ori   	r4,r3,0	 # move reg to reg
	l.lwz   	r3,-28(r2)	 # SI load
	l.sfgts 	r4,r3 # cmpsi_gt
	l.bf	.L13
	l.nop			# nop delay slot
	l.j     	.L14 # jump_internal
	l.nop			# nop delay slot
.L624:
	l.lwz   	r3,-40(r2)	 # SI load
	l.ori   	r4,r3,0	 # move reg to reg
	l.lwz   	r3,-24(r2)	 # SI load
	l.add   	r3,r3,r4 # addsi3
	l.lbz   	r3,0(r3)	 # zero_extendqisi2
	l.ori   	r4,r3,0	 # move reg to reg
	l.lwz   	r3,-28(r2)	 # SI load
	l.sfles 	r4,r3 # cmpsi_le
	l.bf	.L1284
	l.nop			# nop delay slot
	l.lwz   	r3,-36(r2)	 # SI load
	l.ori   	r4,r3,0	 # move reg to reg
	l.lwz   	r3,-24(r2)	 # SI load
	l.add   	r3,r3,r4 # addsi3
	l.lbz   	r3,0(r3)	 # zero_extendqisi2
	l.ori   	r4,r3,0	 # move reg to reg
	l.lwz   	r3,-28(r2)	 # SI load
	l.sfgts 	r4,r3 # cmpsi_gt
	l.bf	.L13
	l.nop			# nop delay slot
	l.j     	.L14 # jump_internal
	l.nop			# nop delay slot
.L617:
	l.lwz   	r3,-52(r2)	 # SI load
	l.ori   	r4,r3,0	 # move reg to reg
	l.lwz   	r3,-24(r2)	 # SI load
	l.add   	r3,r3,r4 # addsi3
	l.lbz   	r3,0(r3)	 # zero_extendqisi2
	l.ori   	r4,r3,0	 # move reg to reg
	l.lwz   	r3,-32(r2)	 # SI load
	l.sfges 	r4,r3 # cmpsi_ge
	l.bf	.L1285
	l.nop			# nop delay slot
	l.lwz   	r3,-48(r2)	 # SI load
	l.ori   	r4,r3,0	 # move reg to reg
	l.lwz   	r3,-24(r2)	 # SI load
	l.add   	r3,r3,r4 # addsi3
	l.lbz   	r3,0(r3)	 # zero_extendqisi2
	l.ori   	r4,r3,0	 # move reg to reg
	l.lwz   	r3,-32(r2)	 # SI load
	l.sfges 	r4,r3 # cmpsi_ge
	l.bf	.L1286
	l.nop			# nop delay slot
	l.lwz   	r3,-44(r2)	 # SI load
	l.ori   	r4,r3,0	 # move reg to reg
	l.lwz   	r3,-24(r2)	 # SI load
	l.add   	r3,r3,r4 # addsi3
	l.lbz   	r3,0(r3)	 # zero_extendqisi2
	l.ori   	r4,r3,0	 # move reg to reg
	l.lwz   	r3,-32(r2)	 # SI load
	l.sfges 	r4,r3 # cmpsi_ge
	l.bf	.L1287
	l.nop			# nop delay slot
	l.lwz   	r3,-40(r2)	 # SI load
	l.ori   	r4,r3,0	 # move reg to reg
	l.lwz   	r3,-24(r2)	 # SI load
	l.add   	r3,r3,r4 # addsi3
	l.lbz   	r3,0(r3)	 # zero_extendqisi2
	l.ori   	r4,r3,0	 # move reg to reg
	l.lwz   	r3,-32(r2)	 # SI load
	l.sfges 	r4,r3 # cmpsi_ge
	l.bf	.L629
	l.nop			# nop delay slot
	l.lwz   	r3,-36(r2)	 # SI load
	l.ori   	r4,r3,0	 # move reg to reg
	l.lwz   	r3,-24(r2)	 # SI load
	l.add   	r3,r3,r4 # addsi3
	l.lbz   	r3,0(r3)	 # zero_extendqisi2
	l.ori   	r4,r3,0	 # move reg to reg
	l.lwz   	r3,-32(r2)	 # SI load
	l.sflts 	r4,r3 # cmpsi_lt
	l.bf	.L13
	l.nop			# nop delay slot
	l.lwz   	r3,-72(r2)	 # SI load
	l.ori   	r4,r3,0	 # move reg to reg
	l.lwz   	r3,-24(r2)	 # SI load
	l.add   	r3,r3,r4 # addsi3
	l.lbz   	r3,0(r3)	 # zero_extendqisi2
	l.ori   	r4,r3,0	 # move reg to reg
	l.lwz   	r3,-32(r2)	 # SI load
	l.sfges 	r4,r3 # cmpsi_ge
	l.bf	.L1288
	l.nop			# nop delay slot
	l.lwz   	r3,-68(r2)	 # SI load
	l.ori   	r4,r3,0	 # move reg to reg
	l.lwz   	r3,-24(r2)	 # SI load
	l.add   	r3,r3,r4 # addsi3
	l.lbz   	r3,0(r3)	 # zero_extendqisi2
	l.ori   	r4,r3,0	 # move reg to reg
	l.lwz   	r3,-32(r2)	 # SI load
	l.sfges 	r4,r3 # cmpsi_ge
	l.bf	.L1289
	l.nop			# nop delay slot
	l.lwz   	r3,-64(r2)	 # SI load
	l.ori   	r4,r3,0	 # move reg to reg
	l.lwz   	r3,-24(r2)	 # SI load
	l.add   	r3,r3,r4 # addsi3
	l.lbz   	r3,0(r3)	 # zero_extendqisi2
	l.ori   	r4,r3,0	 # move reg to reg
	l.lwz   	r3,-32(r2)	 # SI load
	l.sfges 	r4,r3 # cmpsi_ge
	l.bf	.L1290
	l.nop			# nop delay slot
	l.lwz   	r3,-60(r2)	 # SI load
	l.ori   	r4,r3,0	 # move reg to reg
	l.lwz   	r3,-24(r2)	 # SI load
	l.add   	r3,r3,r4 # addsi3
	l.lbz   	r3,0(r3)	 # zero_extendqisi2
	l.ori   	r4,r3,0	 # move reg to reg
	l.lwz   	r3,-32(r2)	 # SI load
	l.sfges 	r4,r3 # cmpsi_ge
	l.bf	.L1291
	l.nop			# nop delay slot
	l.lwz   	r3,-56(r2)	 # SI load
	l.ori   	r4,r3,0	 # move reg to reg
	l.lwz   	r3,-24(r2)	 # SI load
	l.add   	r3,r3,r4 # addsi3
	l.lbz   	r3,0(r3)	 # zero_extendqisi2
	l.ori   	r4,r3,0	 # move reg to reg
	l.lwz   	r3,-32(r2)	 # SI load
	l.sflts 	r4,r3 # cmpsi_lt
	l.bf	.L13
	l.nop			# nop delay slot
	l.j     	.L14 # jump_internal
	l.nop			# nop delay slot
.L629:
	l.lwz   	r3,-76(r2)	 # SI load
